(dp0
S'phone_number'
p1
(dp2
S'slashes'
p3
(dp4
I0
I2000
ssS'dots'
p5
(dp6
I0
I2000
ssS'lower'
p7
(dp8
I0
I2000
ssS'commas'
p9
(dp10
I0
I2000
ssS'upper'
p11
(dp12
I0
I2000
ssS'length'
p13
(dp14
I16
I635
sI17
I277
sI12
I3
sI15
I1085
ssS'spaces'
p15
(dp16
I0
I2000
ssS'numbers'
p17
(dp18
I8
I3
sI11
I1085
sI12
I635
sI13
I277
ssS'dashes'
p19
(dp20
I2
I2000
sssS'isbn'
p21
(dp22
g3
(dp23
I0
I1443
ssg5
(dp24
I0
I1443
ssg7
(dp25
I0
I1443
ssg9
(dp26
I0
I1443
ssg11
(dp27
I0
I1319
sI1
I124
ssg13
(dp28
I8
I88
sI9
I1078
sI10
I273
sI7
I4
ssg15
(dp29
I0
I1443
ssg17
(dp30
I8
I88
sI9
I1202
sI10
I149
sI7
I4
ssg19
(dp31
I0
I1443
sssS'string'
p32
(dp33
g3
(dp34
I0
I1998
sI3
I596
sI4
I596
sI5
I556
sI6
I608
sI7
I528
sI8
I620
sI9
I496
ssg5
(dp35
I0
I998
sI1
I926
sI2
I3710
sI3
I364
ssg7
(dp36
I4
I34
sI5
I153
sI6
I116
sI7
I5
sI8
I52
sI9
I6
sI10
I527
sI11
I113
sI12
I30
sI13
I47
sI14
I77
sI15
I105
sI16
I107
sI17
I115
sI18
I105
sI19
I102
sI20
I86
sI21
I62
sI22
I57
sI23
I33
sI24
I23
sI25
I17
sI26
I10
sI27
I7
sI28
I1
sI29
I6
sI31
I1
sI33
I1
sI38
I4
sI44
I4
sI45
I4
sI49
I4
sI50
I4
sI52
I8
sI54
I4
sI57
I4
sI58
I4
sI59
I8
sI62
I8
sI64
I8
sI65
I8
sI67
I4
sI69
I4
sI70
I12
sI72
I4
sI73
I4
sI74
I4
sI75
I8
sI76
I8
sI80
I16
sI82
I4
sI83
I8
sI85
I8
sI87
I4
sI88
I4
sI89
I8
sI90
I4
sI91
I8
sI92
I4
sI93
I4
sI94
I8
sI95
I8
sI97
I4
sI98
I4
sI102
I4
sI104
I4
sI105
I4
sI107
I4
sI108
I8
sI111
I8
sI114
I8
sI115
I8
sI118
I8
sI119
I12
sI123
I4
sI124
I8
sI127
I4
sI129
I8
sI130
I4
sI131
I4
sI134
I4
sI136
I8
sI139
I4
sI140
I4
sI141
I12
sI146
I4
sI147
I4
sI148
I4
sI149
I4
sI151
I8
sI155
I4
sI156
I4
sI157
I4
sI158
I4
sI161
I8
sI162
I8
sI165
I4
sI166
I4
sI167
I8
sI168
I8
sI169
I4
sI170
I4
sI171
I12
sI174
I4
sI176
I4
sI177
I12
sI179
I4
sI180
I4
sI184
I4
sI185
I4
sI187
I4
sI188
I8
sI189
I8
sI190
I4
sI192
I8
sI193
I4
sI196
I4
sI197
I4
sI201
I4
sI203
I4
sI205
I4
sI207
I4
sI208
I8
sI209
I4
sI210
I4
sI211
I8
sI212
I4
sI213
I4
sI214
I4
sI215
I4
sI216
I4
sI217
I4
sI218
I8
sI219
I8
sI220
I4
sI221
I4
sI222
I8
sI224
I12
sI226
I4
sI229
I4
sI232
I4
sI234
I8
sI235
I8
sI238
I8
sI239
I8
sI240
I4
sI242
I8
sI243
I12
sI244
I4
sI245
I4
sI246
I12
sI247
I4
sI252
I4
sI254
I4
sI255
I8
sI256
I8
sI257
I4
sI258
I8
sI259
I4
sI260
I8
sI263
I8
sI264
I4
sI265
I4
sI268
I8
sI269
I8
sI270
I8
sI271
I8
sI272
I8
sI274
I12
sI275
I12
sI277
I8
sI284
I4
sI285
I4
sI286
I4
sI291
I4
sI292
I4
sI293
I8
sI294
I16
sI295
I4
sI297
I4
sI299
I4
sI302
I4
sI303
I4
sI304
I4
sI305
I8
sI306
I8
sI307
I8
sI311
I4
sI312
I4
sI317
I4
sI319
I4
sI321
I8
sI323
I4
sI327
I8
sI328
I4
sI329
I4
sI330
I8
sI331
I8
sI333
I4
sI334
I12
sI335
I4
sI336
I4
sI337
I4
sI339
I8
sI340
I4
sI342
I12
sI343
I4
sI344
I8
sI345
I8
sI346
I4
sI347
I4
sI350
I4
sI351
I12
sI352
I8
sI354
I4
sI355
I4
sI356
I4
sI357
I4
sI359
I4
sI362
I8
sI366
I4
sI367
I4
sI368
I8
sI369
I8
sI370
I8
sI371
I12
sI373
I8
sI374
I4
sI375
I4
sI376
I4
sI379
I4
sI380
I4
sI381
I4
sI384
I4
sI385
I12
sI386
I4
sI387
I8
sI390
I4
sI392
I12
sI393
I4
sI396
I12
sI398
I8
sI399
I8
sI403
I4
sI404
I4
sI405
I4
sI408
I4
sI409
I4
sI410
I4
sI416
I4
sI418
I4
sI420
I8
sI422
I4
sI426
I4
sI430
I12
sI431
I4
sI433
I4
sI434
I8
sI435
I4
sI437
I4
sI438
I4
sI440
I4
sI442
I12
sI443
I4
sI445
I4
sI447
I4
sI449
I4
sI450
I8
sI452
I8
sI454
I4
sI455
I8
sI458
I12
sI461
I16
sI463
I4
sI464
I8
sI465
I4
sI466
I4
sI468
I4
sI471
I4
sI472
I4
sI475
I12
sI476
I4
sI478
I4
sI479
I8
sI480
I4
sI482
I8
sI483
I8
sI486
I12
sI487
I4
sI491
I4
sI492
I8
sI493
I4
sI496
I8
sI497
I4
sI500
I12
sI503
I8
sI504
I8
sI506
I8
sI507
I4
sI508
I4
sI510
I8
sI513
I4
sI514
I8
sI516
I4
sI518
I4
sI521
I12
sI522
I4
sI523
I12
sI524
I4
sI526
I4
sI528
I8
sI529
I8
sI532
I12
sI533
I4
sI534
I8
sI535
I4
sI536
I4
sI538
I4
sI539
I4
sI540
I8
sI543
I4
sI544
I4
sI547
I8
sI550
I4
sI554
I4
sI556
I4
sI561
I4
sI563
I12
sI566
I16
sI567
I4
sI569
I8
sI571
I4
sI572
I4
sI573
I4
sI574
I12
sI575
I4
sI577
I4
sI579
I4
sI580
I4
sI584
I4
sI587
I4
sI589
I4
sI592
I4
sI593
I4
sI595
I4
sI596
I4
sI598
I16
sI599
I4
sI600
I4
sI603
I4
sI604
I4
sI605
I4
sI606
I12
sI607
I4
sI609
I4
sI610
I4
sI613
I12
sI614
I8
sI615
I4
sI619
I4
sI622
I8
sI623
I4
sI624
I4
sI625
I8
sI626
I4
sI627
I4
sI628
I4
sI629
I12
sI630
I8
sI633
I8
sI635
I4
sI636
I8
sI637
I16
sI638
I8
sI639
I4
sI641
I4
sI642
I4
sI643
I4
sI645
I8
sI646
I4
sI647
I4
sI649
I4
sI650
I4
sI651
I4
sI652
I4
sI653
I8
sI654
I12
sI659
I8
sI660
I12
sI661
I4
sI664
I8
sI666
I8
sI667
I4
sI668
I4
sI669
I8
sI670
I8
sI672
I4
sI673
I8
sI674
I4
sI675
I8
sI678
I8
sI679
I4
sI681
I12
sI682
I4
sI683
I20
sI684
I4
sI685
I4
sI686
I4
sI687
I4
sI689
I16
sI690
I4
sI691
I8
sI692
I8
sI696
I8
sI698
I4
sI700
I4
sI701
I4
sI703
I4
sI704
I12
sI707
I8
sI708
I8
sI709
I4
sI710
I4
sI711
I4
sI712
I8
sI713
I8
sI715
I4
sI716
I16
sI720
I4
sI721
I8
sI722
I4
sI723
I8
sI724
I4
sI725
I4
sI726
I4
sI728
I4
sI732
I8
sI734
I4
sI735
I8
sI741
I12
sI743
I4
sI744
I4
sI745
I4
sI746
I8
sI747
I8
sI749
I8
sI750
I4
sI751
I4
sI753
I8
sI754
I4
sI757
I4
sI760
I8
sI761
I16
sI762
I4
sI763
I8
sI767
I4
sI769
I8
sI770
I4
sI771
I4
sI772
I4
sI775
I8
sI776
I4
sI778
I4
sI781
I8
sI783
I4
sI784
I8
sI785
I8
sI788
I4
sI791
I8
sI792
I4
sI793
I4
sI794
I4
sI795
I4
sI798
I8
sI799
I4
sI800
I4
sI802
I4
sI808
I4
sI810
I12
sI813
I4
sI814
I4
sI815
I4
sI819
I8
sI821
I8
sI822
I4
sI823
I8
sI824
I4
sI827
I8
sI828
I4
sI829
I8
sI830
I12
sI831
I8
sI832
I12
sI835
I4
sI836
I8
sI837
I4
sI839
I8
sI843
I4
sI844
I8
sI847
I4
sI848
I8
sI849
I4
sI852
I8
sI853
I4
sI855
I4
sI858
I16
sI859
I4
sI863
I4
sI864
I8
sI865
I8
sI866
I4
sI867
I4
sI870
I12
sI875
I12
sI876
I4
sI877
I4
sI879
I8
sI880
I12
sI881
I4
sI882
I4
sI883
I8
sI884
I4
sI886
I12
sI887
I16
sI894
I4
sI895
I4
sI898
I4
sI899
I4
sI900
I8
sI901
I8
sI902
I8
sI904
I4
sI907
I8
sI908
I12
sI909
I4
sI910
I8
sI911
I4
sI912
I4
sI913
I8
sI915
I12
sI916
I4
sI918
I12
sI919
I8
sI920
I4
sI922
I4
sI924
I4
sI925
I4
sI926
I8
sI927
I4
sI928
I12
sI929
I4
sI932
I4
sI934
I4
sI935
I4
sI937
I4
sI938
I8
sI939
I8
sI940
I8
sI941
I4
sI942
I4
sI943
I4
sI945
I4
sI946
I12
sI947
I4
sI948
I4
sI950
I4
sI952
I4
sI953
I12
sI955
I8
sI957
I8
sI958
I4
sI959
I8
sI961
I4
sI962
I4
sI963
I8
sI964
I12
sI965
I4
sI966
I12
sI969
I12
sI970
I4
sI972
I4
sI973
I12
sI975
I4
sI977
I8
sI979
I8
sI980
I12
sI982
I8
sI984
I12
sI985
I4
sI987
I12
sI988
I4
sI989
I8
sI991
I4
sI992
I4
sI994
I4
sI995
I4
sI996
I8
sI997
I12
sI999
I8
sI1001
I8
sI1002
I8
sI1004
I4
sI1007
I8
sI1009
I4
sI1011
I4
sI1012
I4
sI1013
I4
sI1015
I4
sI1016
I4
sI1017
I4
sI1018
I4
sI1019
I4
sI1022
I12
sI1023
I4
sI1024
I4
sI1025
I4
sI1028
I4
sI1029
I4
sI1030
I8
sI1031
I4
sI1032
I4
sI1034
I4
sI1035
I8
sI1036
I4
sI1037
I8
sI1038
I4
sI1040
I4
sI1041
I4
sI1042
I4
sI1043
I4
sI1044
I4
sI1046
I8
sI1047
I4
sI1050
I12
sI1051
I8
sI1052
I8
sI1056
I4
sI1057
I8
sI1059
I4
sI1062
I4
sI1063
I4
sI1064
I8
sI1066
I4
sI1068
I4
sI1070
I8
sI1072
I4
sI1075
I4
sI1076
I4
sI1077
I4
sI1078
I4
sI1079
I4
sI1082
I4
sI1084
I4
sI1086
I4
sI1087
I4
sI1088
I4
sI1089
I4
sI1091
I8
sI1092
I4
sI1094
I4
sI1096
I4
sI1097
I4
sI1099
I4
sI1101
I8
sI1102
I4
sI1104
I12
sI1106
I8
sI1108
I4
sI1110
I4
sI1113
I8
sI1116
I4
sI1118
I4
sI1119
I12
sI1121
I8
sI1126
I4
sI1129
I8
sI1132
I4
sI1134
I4
sI1137
I4
sI1142
I4
sI1148
I4
sI1158
I4
ssg9
(dp37
I0
I5998
ssg11
(dp38
I5
I34
sI6
I153
sI7
I115
sI8
I6
sI9
I42
sI10
I15
sI11
I75
sI12
I493
sI13
I150
sI14
I77
sI15
I98
sI16
I107
sI17
I116
sI18
I111
sI19
I102
sI20
I86
sI21
I62
sI22
I57
sI23
I33
sI24
I23
sI25
I17
sI26
I10
sI27
I7
sI28
I1
sI29
I6
sI31
I1
sI33
I1
sI38
I4
sI44
I4
sI45
I4
sI49
I4
sI50
I4
sI52
I8
sI54
I4
sI57
I4
sI58
I4
sI59
I8
sI62
I8
sI64
I8
sI65
I8
sI67
I4
sI69
I4
sI70
I12
sI72
I4
sI73
I4
sI74
I4
sI75
I8
sI76
I8
sI80
I16
sI82
I4
sI83
I8
sI85
I8
sI87
I4
sI88
I4
sI89
I8
sI90
I4
sI91
I8
sI92
I4
sI93
I4
sI94
I8
sI95
I8
sI97
I4
sI98
I4
sI102
I4
sI104
I4
sI105
I4
sI107
I4
sI108
I8
sI111
I8
sI114
I8
sI115
I8
sI118
I8
sI119
I12
sI123
I4
sI124
I8
sI127
I4
sI129
I8
sI130
I4
sI131
I4
sI134
I4
sI136
I8
sI139
I4
sI140
I4
sI141
I12
sI146
I4
sI147
I4
sI148
I4
sI149
I4
sI151
I8
sI155
I4
sI156
I4
sI157
I4
sI158
I4
sI161
I8
sI162
I8
sI165
I4
sI166
I4
sI167
I8
sI168
I8
sI169
I4
sI170
I4
sI171
I12
sI174
I4
sI176
I4
sI177
I12
sI179
I4
sI180
I4
sI184
I4
sI185
I4
sI187
I4
sI188
I8
sI189
I8
sI190
I4
sI192
I8
sI193
I4
sI196
I4
sI197
I4
sI201
I4
sI203
I4
sI205
I4
sI207
I4
sI208
I8
sI209
I4
sI210
I4
sI211
I8
sI212
I4
sI213
I4
sI214
I4
sI215
I4
sI216
I4
sI217
I4
sI218
I8
sI219
I8
sI220
I4
sI221
I4
sI222
I8
sI224
I12
sI226
I4
sI229
I4
sI232
I4
sI234
I8
sI235
I8
sI238
I8
sI239
I8
sI240
I4
sI242
I8
sI243
I12
sI244
I4
sI245
I4
sI246
I12
sI247
I4
sI252
I4
sI254
I4
sI255
I8
sI256
I8
sI257
I4
sI258
I8
sI259
I4
sI260
I8
sI263
I8
sI264
I4
sI265
I4
sI268
I8
sI269
I8
sI270
I8
sI271
I8
sI272
I8
sI274
I12
sI275
I12
sI277
I8
sI284
I4
sI285
I4
sI286
I4
sI291
I4
sI292
I4
sI293
I8
sI294
I16
sI295
I4
sI297
I4
sI299
I4
sI302
I4
sI303
I4
sI304
I4
sI305
I8
sI306
I8
sI307
I8
sI311
I4
sI312
I4
sI317
I4
sI319
I4
sI321
I8
sI323
I4
sI327
I8
sI328
I4
sI329
I4
sI330
I8
sI331
I8
sI333
I4
sI334
I12
sI335
I4
sI336
I4
sI337
I4
sI339
I8
sI340
I4
sI342
I12
sI343
I4
sI344
I8
sI345
I8
sI346
I4
sI347
I4
sI350
I4
sI351
I12
sI352
I8
sI354
I4
sI355
I4
sI356
I4
sI357
I4
sI359
I4
sI362
I8
sI366
I4
sI367
I4
sI368
I8
sI369
I8
sI370
I8
sI371
I12
sI373
I8
sI374
I4
sI375
I4
sI376
I4
sI379
I4
sI380
I4
sI381
I4
sI384
I4
sI385
I12
sI386
I4
sI387
I8
sI390
I4
sI392
I12
sI393
I4
sI396
I12
sI398
I8
sI399
I8
sI403
I4
sI404
I4
sI405
I4
sI408
I4
sI409
I4
sI410
I4
sI416
I4
sI418
I4
sI420
I8
sI422
I4
sI426
I4
sI430
I12
sI431
I4
sI433
I4
sI434
I8
sI435
I4
sI437
I4
sI438
I4
sI440
I4
sI442
I12
sI443
I4
sI445
I4
sI447
I4
sI449
I4
sI450
I8
sI452
I8
sI454
I4
sI455
I8
sI458
I12
sI461
I16
sI463
I4
sI464
I8
sI465
I4
sI466
I4
sI468
I4
sI471
I4
sI472
I4
sI475
I12
sI476
I4
sI478
I4
sI479
I8
sI480
I4
sI482
I8
sI483
I8
sI486
I12
sI487
I4
sI491
I4
sI492
I8
sI493
I4
sI496
I8
sI497
I4
sI500
I12
sI503
I8
sI504
I8
sI506
I8
sI507
I4
sI508
I4
sI510
I8
sI513
I4
sI514
I8
sI516
I4
sI518
I4
sI521
I12
sI522
I4
sI523
I12
sI524
I4
sI526
I4
sI528
I8
sI529
I8
sI532
I12
sI533
I4
sI534
I8
sI535
I4
sI536
I4
sI538
I4
sI539
I4
sI540
I8
sI543
I4
sI544
I4
sI547
I8
sI550
I4
sI554
I4
sI556
I4
sI561
I4
sI563
I12
sI566
I16
sI567
I4
sI569
I8
sI571
I4
sI572
I4
sI573
I4
sI574
I12
sI575
I4
sI577
I4
sI579
I4
sI580
I4
sI584
I4
sI587
I4
sI589
I4
sI592
I4
sI593
I4
sI595
I4
sI596
I4
sI598
I16
sI599
I4
sI600
I4
sI603
I4
sI604
I4
sI605
I4
sI606
I12
sI607
I4
sI609
I4
sI610
I4
sI613
I12
sI614
I8
sI615
I4
sI619
I4
sI622
I8
sI623
I4
sI624
I4
sI625
I8
sI626
I4
sI627
I4
sI628
I4
sI629
I12
sI630
I8
sI633
I8
sI635
I4
sI636
I8
sI637
I16
sI638
I8
sI639
I4
sI641
I4
sI642
I4
sI643
I4
sI645
I8
sI646
I4
sI647
I4
sI649
I4
sI650
I4
sI651
I4
sI652
I4
sI653
I8
sI654
I12
sI659
I8
sI660
I12
sI661
I4
sI664
I8
sI666
I8
sI667
I4
sI668
I4
sI669
I8
sI670
I8
sI672
I4
sI673
I8
sI674
I4
sI675
I8
sI678
I8
sI679
I4
sI681
I12
sI682
I4
sI683
I20
sI684
I4
sI685
I4
sI686
I4
sI687
I4
sI689
I16
sI690
I4
sI691
I8
sI692
I8
sI696
I8
sI698
I4
sI700
I4
sI701
I4
sI703
I4
sI704
I12
sI707
I8
sI708
I8
sI709
I4
sI710
I4
sI711
I4
sI712
I8
sI713
I8
sI715
I4
sI716
I16
sI720
I4
sI721
I8
sI722
I4
sI723
I8
sI724
I4
sI725
I4
sI726
I4
sI728
I4
sI732
I8
sI734
I4
sI735
I8
sI741
I12
sI743
I4
sI744
I4
sI745
I4
sI746
I8
sI747
I8
sI749
I8
sI750
I4
sI751
I4
sI753
I8
sI754
I4
sI757
I4
sI760
I8
sI761
I16
sI762
I4
sI763
I8
sI767
I4
sI769
I8
sI770
I4
sI771
I4
sI772
I4
sI775
I8
sI776
I4
sI778
I4
sI781
I8
sI783
I4
sI784
I8
sI785
I8
sI788
I4
sI791
I8
sI792
I4
sI793
I4
sI794
I4
sI795
I4
sI798
I8
sI799
I4
sI800
I4
sI802
I4
sI808
I4
sI810
I12
sI813
I4
sI814
I4
sI815
I4
sI819
I8
sI821
I8
sI822
I4
sI823
I8
sI824
I4
sI827
I8
sI828
I4
sI829
I8
sI830
I12
sI831
I8
sI832
I12
sI835
I4
sI836
I8
sI837
I4
sI839
I8
sI843
I4
sI844
I8
sI847
I4
sI848
I8
sI849
I4
sI852
I8
sI853
I4
sI855
I4
sI858
I16
sI859
I4
sI863
I4
sI864
I8
sI865
I8
sI866
I4
sI867
I4
sI870
I12
sI875
I12
sI876
I4
sI877
I4
sI879
I8
sI880
I12
sI881
I4
sI882
I4
sI883
I8
sI884
I4
sI886
I12
sI887
I16
sI894
I4
sI895
I4
sI898
I4
sI899
I4
sI900
I8
sI901
I8
sI902
I8
sI904
I4
sI907
I8
sI908
I12
sI909
I4
sI910
I8
sI911
I4
sI912
I4
sI913
I8
sI915
I12
sI916
I4
sI918
I12
sI919
I8
sI920
I4
sI922
I4
sI924
I4
sI925
I4
sI926
I8
sI927
I4
sI928
I12
sI929
I4
sI932
I4
sI934
I4
sI935
I4
sI937
I4
sI938
I8
sI939
I8
sI940
I8
sI941
I4
sI942
I4
sI943
I4
sI945
I4
sI946
I12
sI947
I4
sI948
I4
sI950
I4
sI952
I4
sI953
I12
sI955
I8
sI957
I8
sI958
I4
sI959
I8
sI961
I4
sI962
I4
sI963
I8
sI964
I12
sI965
I4
sI966
I12
sI969
I12
sI970
I4
sI972
I4
sI973
I12
sI975
I4
sI977
I8
sI979
I8
sI980
I12
sI982
I8
sI984
I12
sI985
I4
sI987
I12
sI988
I4
sI989
I8
sI991
I4
sI992
I4
sI994
I4
sI995
I4
sI996
I8
sI997
I12
sI999
I8
sI1001
I8
sI1002
I8
sI1004
I4
sI1007
I8
sI1009
I4
sI1011
I4
sI1012
I4
sI1013
I4
sI1015
I4
sI1016
I4
sI1017
I4
sI1018
I4
sI1019
I4
sI1022
I12
sI1023
I4
sI1024
I4
sI1025
I4
sI1028
I4
sI1029
I4
sI1030
I8
sI1031
I4
sI1032
I4
sI1034
I4
sI1035
I8
sI1036
I4
sI1037
I8
sI1038
I4
sI1040
I4
sI1041
I4
sI1042
I4
sI1043
I4
sI1044
I4
sI1046
I8
sI1047
I4
sI1050
I12
sI1051
I8
sI1052
I8
sI1056
I4
sI1057
I8
sI1059
I4
sI1062
I4
sI1063
I4
sI1064
I8
sI1066
I4
sI1068
I4
sI1070
I8
sI1072
I4
sI1075
I4
sI1076
I4
sI1077
I4
sI1078
I4
sI1079
I4
sI1082
I4
sI1084
I4
sI1086
I4
sI1087
I4
sI1088
I4
sI1089
I4
sI1091
I8
sI1092
I4
sI1094
I4
sI1096
I4
sI1097
I4
sI1099
I4
sI1101
I8
sI1102
I4
sI1104
I12
sI1106
I8
sI1108
I4
sI1110
I4
sI1113
I8
sI1116
I4
sI1118
I4
sI1119
I12
sI1121
I8
sI1126
I4
sI1129
I8
sI1132
I4
sI1134
I4
sI1137
I4
sI1142
I4
sI1148
I4
sI1158
I4
ssg13
(dp39
I5
I34
sI6
I153
sI7
I115
sI8
I4
sI9
I42
sI10
I2
sI11
I70
sI12
I6
sI13
I465
sI14
I110
sI15
I28
sI16
I65
sI17
I87
sI18
I103
sI19
I109
sI20
I106
sI21
I131
sI22
I93
sI23
I77
sI24
I64
sI25
I45
sI26
I29
sI27
I21
sI28
I20
sI29
I6
sI30
I4
sI31
I4
sI32
I2
sI33
I2
sI35
I1
sI48
I4
sI53
I4
sI56
I4
sI59
I4
sI61
I4
sI62
I4
sI64
I4
sI67
I4
sI71
I4
sI72
I4
sI74
I8
sI75
I4
sI76
I4
sI78
I4
sI79
I8
sI80
I4
sI82
I8
sI83
I8
sI85
I4
sI87
I4
sI88
I8
sI89
I4
sI91
I4
sI92
I4
sI93
I4
sI96
I4
sI97
I8
sI98
I4
sI99
I12
sI103
I4
sI104
I8
sI106
I4
sI107
I4
sI109
I8
sI110
I8
sI112
I12
sI113
I4
sI115
I4
sI116
I4
sI118
I4
sI119
I4
sI125
I8
sI126
I4
sI129
I4
sI130
I4
sI132
I4
sI134
I8
sI136
I4
sI137
I4
sI138
I4
sI139
I4
sI140
I8
sI141
I8
sI143
I4
sI146
I4
sI147
I4
sI148
I4
sI152
I4
sI154
I8
sI157
I4
sI159
I4
sI160
I4
sI162
I8
sI166
I4
sI167
I4
sI168
I4
sI169
I8
sI175
I4
sI176
I4
sI180
I8
sI182
I4
sI184
I4
sI186
I12
sI188
I4
sI191
I4
sI193
I4
sI194
I4
sI195
I4
sI197
I4
sI198
I4
sI199
I8
sI200
I8
sI202
I4
sI203
I8
sI205
I8
sI207
I4
sI208
I4
sI210
I4
sI211
I4
sI212
I4
sI214
I8
sI221
I4
sI223
I4
sI224
I4
sI226
I12
sI227
I12
sI228
I4
sI229
I4
sI233
I4
sI234
I4
sI240
I4
sI241
I4
sI243
I4
sI244
I4
sI247
I4
sI248
I4
sI249
I8
sI251
I4
sI253
I8
sI254
I4
sI256
I4
sI259
I8
sI260
I8
sI261
I4
sI262
I12
sI263
I4
sI265
I12
sI269
I8
sI270
I4
sI272
I4
sI276
I8
sI278
I4
sI280
I4
sI281
I4
sI282
I4
sI283
I4
sI285
I4
sI286
I4
sI287
I8
sI288
I4
sI289
I12
sI291
I8
sI292
I12
sI293
I4
sI299
I4
sI301
I4
sI302
I4
sI303
I4
sI305
I4
sI306
I4
sI307
I8
sI308
I4
sI309
I4
sI311
I4
sI312
I12
sI313
I4
sI315
I8
sI318
I4
sI320
I4
sI321
I4
sI322
I8
sI324
I16
sI325
I8
sI326
I8
sI328
I4
sI329
I4
sI332
I4
sI333
I8
sI339
I8
sI348
I4
sI349
I12
sI350
I8
sI351
I4
sI352
I4
sI353
I4
sI354
I4
sI355
I4
sI357
I4
sI360
I4
sI363
I12
sI368
I8
sI369
I8
sI371
I4
sI373
I4
sI376
I4
sI377
I4
sI381
I4
sI382
I4
sI385
I4
sI386
I4
sI387
I4
sI389
I4
sI391
I4
sI392
I8
sI395
I4
sI396
I12
sI397
I8
sI398
I4
sI399
I4
sI401
I4
sI402
I8
sI403
I8
sI404
I4
sI406
I4
sI407
I4
sI408
I4
sI410
I8
sI411
I4
sI412
I8
sI417
I4
sI418
I4
sI419
I8
sI420
I12
sI422
I4
sI423
I4
sI425
I4
sI426
I4
sI428
I4
sI434
I4
sI435
I4
sI436
I4
sI437
I4
sI438
I4
sI439
I4
sI440
I16
sI442
I4
sI443
I8
sI444
I4
sI445
I4
sI446
I4
sI449
I8
sI452
I8
sI454
I8
sI457
I12
sI458
I4
sI461
I4
sI464
I8
sI467
I4
sI469
I4
sI470
I12
sI472
I4
sI473
I4
sI476
I12
sI477
I4
sI479
I4
sI483
I4
sI486
I4
sI488
I4
sI489
I4
sI496
I4
sI501
I4
sI503
I8
sI505
I4
sI506
I4
sI509
I4
sI511
I4
sI513
I4
sI514
I4
sI516
I8
sI517
I8
sI519
I4
sI520
I4
sI522
I4
sI524
I8
sI526
I4
sI528
I4
sI529
I4
sI531
I4
sI532
I12
sI534
I4
sI537
I4
sI538
I4
sI539
I8
sI543
I8
sI546
I8
sI547
I4
sI552
I8
sI553
I8
sI554
I8
sI556
I4
sI557
I4
sI558
I4
sI561
I12
sI564
I4
sI565
I8
sI567
I4
sI568
I8
sI571
I4
sI574
I8
sI575
I12
sI578
I4
sI579
I4
sI580
I4
sI585
I4
sI586
I4
sI587
I4
sI588
I4
sI591
I8
sI592
I8
sI593
I4
sI595
I4
sI598
I8
sI601
I4
sI603
I4
sI604
I4
sI606
I8
sI608
I4
sI609
I4
sI610
I8
sI612
I4
sI613
I8
sI614
I4
sI615
I4
sI616
I8
sI622
I8
sI623
I8
sI625
I8
sI626
I4
sI627
I4
sI628
I4
sI634
I8
sI636
I4
sI637
I12
sI638
I8
sI639
I4
sI640
I4
sI641
I4
sI643
I4
sI644
I4
sI649
I4
sI651
I4
sI652
I4
sI657
I4
sI658
I4
sI664
I4
sI665
I4
sI666
I8
sI667
I4
sI669
I4
sI672
I4
sI673
I4
sI674
I4
sI675
I8
sI676
I4
sI678
I12
sI680
I4
sI683
I4
sI685
I4
sI688
I12
sI690
I4
sI692
I4
sI700
I4
sI703
I4
sI704
I8
sI708
I4
sI709
I12
sI711
I4
sI713
I8
sI715
I12
sI716
I4
sI717
I4
sI720
I4
sI721
I4
sI723
I4
sI724
I4
sI726
I4
sI728
I8
sI730
I8
sI731
I4
sI732
I4
sI734
I4
sI735
I4
sI738
I4
sI741
I8
sI742
I4
sI743
I8
sI745
I8
sI746
I8
sI749
I4
sI751
I16
sI752
I4
sI753
I4
sI755
I4
sI756
I12
sI757
I12
sI758
I4
sI760
I4
sI764
I8
sI766
I8
sI768
I4
sI769
I4
sI770
I4
sI771
I4
sI773
I4
sI774
I8
sI775
I4
sI777
I4
sI779
I4
sI781
I4
sI782
I4
sI783
I4
sI785
I4
sI786
I8
sI787
I4
sI789
I4
sI790
I8
sI791
I8
sI792
I8
sI793
I12
sI794
I4
sI798
I4
sI799
I4
sI800
I4
sI801
I4
sI802
I4
sI804
I4
sI805
I4
sI806
I4
sI807
I12
sI808
I12
sI809
I8
sI810
I4
sI811
I4
sI812
I12
sI814
I12
sI817
I8
sI818
I4
sI820
I4
sI824
I16
sI828
I8
sI829
I4
sI830
I4
sI835
I4
sI837
I4
sI838
I8
sI840
I8
sI842
I8
sI843
I4
sI845
I4
sI846
I4
sI847
I8
sI848
I4
sI849
I4
sI851
I8
sI852
I4
sI854
I8
sI855
I4
sI856
I4
sI857
I12
sI861
I4
sI864
I4
sI866
I4
sI867
I4
sI870
I8
sI873
I4
sI874
I8
sI876
I4
sI880
I4
sI881
I4
sI882
I4
sI883
I4
sI885
I4
sI886
I8
sI887
I4
sI889
I8
sI890
I4
sI892
I8
sI893
I4
sI896
I4
sI897
I8
sI899
I4
sI901
I4
sI903
I4
sI904
I4
sI905
I4
sI906
I4
sI907
I4
sI908
I4
sI909
I4
sI911
I4
sI913
I4
sI915
I12
sI916
I4
sI919
I4
sI920
I4
sI921
I4
sI923
I4
sI926
I4
sI927
I4
sI929
I4
sI930
I4
sI931
I4
sI932
I8
sI935
I4
sI937
I4
sI940
I8
sI942
I8
sI945
I4
sI947
I4
sI951
I4
sI953
I12
sI956
I4
sI959
I4
sI961
I8
sI962
I4
sI963
I4
sI967
I4
sI971
I4
sI973
I4
sI974
I8
sI975
I8
sI977
I4
sI978
I4
sI980
I12
sI983
I12
sI986
I12
sI988
I4
sI989
I12
sI990
I4
sI991
I4
sI993
I12
sI994
I4
sI1000
I4
sI1001
I4
sI1002
I4
sI1003
I8
sI1006
I4
sI1012
I8
sI1013
I4
sI1015
I4
sI1016
I4
sI1017
I4
sI1018
I8
sI1021
I8
sI1022
I4
sI1023
I4
sI1025
I4
sI1027
I4
sI1028
I12
sI1032
I8
sI1033
I4
sI1038
I8
sI1039
I4
sI1040
I8
sI1041
I4
sI1042
I8
sI1043
I12
sI1044
I8
sI1045
I4
sI1047
I4
sI1048
I4
sI1052
I4
sI1053
I4
sI1056
I12
sI1060
I4
sI1062
I4
sI1064
I4
sI1065
I4
sI1066
I4
sI1069
I8
sI1070
I8
sI1071
I4
sI1072
I8
sI1073
I4
sI1077
I4
sI1078
I4
sI1079
I16
sI1081
I12
sI1082
I4
sI1083
I4
sI1084
I12
sI1086
I4
sI1087
I4
sI1088
I4
sI1089
I4
sI1090
I4
sI1091
I4
sI1092
I4
sI1096
I4
sI1097
I8
sI1098
I4
sI1101
I4
sI1102
I16
sI1104
I4
sI1106
I4
sI1107
I4
sI1110
I4
sI1111
I8
sI1112
I4
sI1114
I4
sI1115
I4
sI1117
I16
sI1118
I8
sI1120
I8
sI1121
I4
sI1126
I8
sI1127
I4
sI1128
I8
sI1130
I12
sI1131
I8
sI1133
I4
sI1136
I4
sI1137
I12
sI1138
I4
sI1139
I4
sI1142
I8
sI1143
I8
sI1145
I4
sI1146
I4
sI1148
I4
sI1149
I4
sI1150
I12
sI1152
I4
sI1153
I4
sI1154
I4
sI1156
I4
sI1159
I8
sI1160
I8
sI1161
I8
sI1164
I4
sI1165
I8
sI1166
I8
sI1167
I8
sI1170
I4
sI1171
I12
sI1173
I12
sI1174
I4
sI1175
I4
sI1176
I4
sI1177
I4
sI1179
I4
sI1180
I4
sI1183
I20
sI1185
I8
sI1186
I4
sI1189
I4
sI1191
I4
sI1192
I8
sI1198
I8
sI1199
I4
sI1201
I8
sI1202
I4
sI1203
I4
sI1204
I8
sI1205
I4
sI1208
I8
sI1209
I8
sI1210
I4
sI1216
I4
sI1217
I8
sI1219
I4
sI1221
I4
sI1225
I12
sI1229
I4
sI1230
I12
sI1232
I4
sI1235
I8
sI1237
I12
sI1239
I4
sI1240
I4
sI1241
I8
sI1242
I4
sI1243
I4
sI1244
I4
sI1245
I8
sI1249
I8
sI1250
I8
sI1251
I4
sI1254
I4
sI1255
I4
sI1258
I4
sI1262
I4
sI1267
I8
sI1269
I8
sI1270
I4
sI1274
I4
sI1277
I4
sI1278
I8
sI1279
I4
sI1280
I4
sI1284
I4
sI1286
I4
sI1287
I4
sI1288
I4
sI1290
I4
sI1292
I4
sI1294
I8
sI1295
I8
sI1299
I8
sI1300
I4
sI1301
I4
sI1303
I8
sI1306
I4
sI1307
I4
sI1308
I4
sI1310
I4
sI1312
I4
sI1313
I4
sI1315
I4
sI1318
I4
sI1320
I8
sI1323
I4
sI1324
I12
sI1325
I4
sI1328
I4
sI1329
I4
sI1334
I4
sI1338
I4
sI1340
I4
sI1345
I4
sI1347
I4
sI1352
I4
sI1361
I4
sI1366
I4
ssg15
(dp40
I0
I5408
sI1
I584
sI2
I6
ssg17
(dp41
I0
I5382
sI1
I439
sI2
I126
sI3
I23
sI4
I27
sI5
I1
ssg19
(dp42
I0
I5901
sI1
I97
sssS'zip'
p43
(dp44
g3
(dp45
I0
I1998
ssg5
(dp46
I0
I1998
ssg7
(dp47
I0
I1998
ssg9
(dp48
I0
I1998
ssg11
(dp49
I0
I1998
ssg13
(dp50
I3
I2
sI4
I86
sI5
I1409
sI6
I1
sI8
I7
sI9
I40
sI10
I453
ssg15
(dp51
I0
I1998
ssg17
(dp52
I3
I2
sI4
I86
sI5
I1409
sI6
I1
sI8
I7
sI9
I493
ssg19
(dp53
I0
I1545
sI1
I453
sssS'ip'
p54
(dp55
g3
(dp56
I0
I2000
ssg5
(dp57
I3
I2000
ssg7
(dp58
I0
I2000
ssg9
(dp59
I0
I2000
ssg11
(dp60
I0
I2000
ssg13
(dp61
I9
I4
sI10
I19
sI11
I113
sI12
I324
sI13
I591
sI14
I675
sI15
I274
ssg15
(dp62
I0
I2000
ssg17
(dp63
I6
I4
sI7
I19
sI8
I113
sI9
I324
sI10
I591
sI11
I675
sI12
I274
ssg19
(dp64
I0
I2000
sssS'number'
p65
(dp66
g3
(dp67
I0
I35058
ssg5
(dp68
I0
I2996
sI1
I32062
ssg7
(dp69
I0
I35058
ssg9
(dp70
I0
I35058
ssg11
(dp71
I0
I35058
ssg13
(dp72
I1
I9
sI2
I90
sI3
I902
sI4
I996
sI5
I2
sI6
I893
sI8
I423
sI9
I26940
sI10
I4803
ssg15
(dp73
I0
I35058
ssg17
(dp74
I1
I9
sI2
I90
sI3
I903
sI4
I996
sI5
I1
sI6
I1211
sI7
I26940
sI8
I4908
ssg19
(dp75
I0
I35058
sssS'longitude'
p76
(dp77
g3
(dp78
I0
I2888
ssg5
(dp79
I0
I10
sI1
I2878
ssg7
(dp80
I0
I2888
ssg9
(dp81
I0
I2888
ssg11
(dp82
I0
I2888
ssg13
(dp83
I2
I9
sI3
I30
sI4
I50
sI5
I57
sI6
I60
sI7
I165
sI8
I1104
sI9
I1037
sI10
I273
sI11
I74
sI12
I29
ssg15
(dp84
I0
I2888
ssg17
(dp85
I1
I7
sI2
I50
sI3
I62
sI4
I80
sI5
I155
sI6
I1121
sI7
I952
sI8
I291
sI9
I99
sI10
I71
ssg19
(dp86
I0
I308
sI1
I2580
sssS'latitude'
p87
(dp88
g3
(dp89
I0
I2888
ssg5
(dp90
I0
I2
sI1
I2886
ssg7
(dp91
I0
I2888
ssg9
(dp92
I0
I2888
ssg11
(dp93
I0
I2888
ssg13
(dp94
I2
I1
sI3
I1
sI4
I62
sI5
I114
sI6
I206
sI7
I1716
sI8
I413
sI9
I4
sI10
I327
sI11
I44
ssg15
(dp95
I0
I2888
ssg17
(dp96
I2
I2
sI3
I66
sI4
I115
sI5
I202
sI6
I1715
sI7
I413
sI8
I5
sI9
I370
ssg19
(dp97
I0
I2832
sI1
I56
sssS'year'
p98
(dp99
g3
(dp100
I0
I2441
ssg5
(dp101
I0
I2441
ssg7
(dp102
I0
I2441
ssg9
(dp103
I0
I2441
ssg11
(dp104
I0
I2441
ssg13
(dp105
I1
I20
sI4
I2421
ssg15
(dp106
I0
I2441
ssg17
(dp107
I1
I20
sI4
I2421
ssg19
(dp108
I0
I2441
sssS'date'
p109
(dp110
g3
(dp111
I2
I1998
ssg5
(dp112
I0
I1998
ssg7
(dp113
I0
I1998
ssg9
(dp114
I0
I1998
ssg11
(dp115
I0
I1998
ssg13
(dp116
I8
I222
sI9
I598
sI10
I180
sI13
I128
sI14
I487
sI15
I383
ssg15
(dp117
I0
I1000
sI1
I998
ssg17
(dp118
I6
I222
sI7
I598
sI8
I180
sI9
I128
sI10
I487
sI11
I383
ssg19
(dp119
I0
I1998
sssS'name'
p120
(dp121
g3
(dp122
I0
I43499
ssg5
(dp123
I0
I43321
sI1
I131
sI2
I37
sI3
I10
ssg7
(dp124
I0
I38587
sI1
I2
sI2
I55
sI3
I348
sI4
I543
sI5
I871
sI6
I819
sI7
I459
sI8
I387
sI9
I360
sI10
I280
sI11
I213
sI12
I172
sI13
I170
sI14
I95
sI15
I59
sI16
I24
sI17
I14
sI18
I32
sI19
I2
sI20
I2
sI22
I3
sI25
I1
sI30
I1
ssg9
(dp125
I0
I11433
sI1
I32066
ssg11
(dp126
I0
I27
sI2
I6380
sI3
I56
sI4
I346
sI5
I532
sI6
I863
sI7
I839
sI8
I625
sI9
I1040
sI10
I2214
sI11
I4033
sI12
I5271
sI13
I6107
sI14
I5561
sI15
I4016
sI16
I2576
sI17
I1382
sI18
I791
sI19
I404
sI20
I182
sI21
I108
sI22
I68
sI23
I37
sI24
I21
sI25
I12
sI26
I6
sI28
I1
sI36
I1
ssg13
(dp127
I0
I3
sI1
I24
sI2
I6380
sI3
I56
sI4
I346
sI5
I529
sI6
I848
sI7
I769
sI8
I380
sI9
I239
sI10
I204
sI11
I345
sI12
I737
sI13
I1370
sI14
I2686
sI15
I4056
sI16
I5115
sI17
I5579
sI18
I4998
sI19
I3543
sI20
I2347
sI21
I1297
sI22
I756
sI23
I400
sI24
I203
sI25
I117
sI26
I61
sI27
I56
sI28
I24
sI29
I17
sI30
I5
sI31
I7
sI32
I1
sI41
I1
ssg15
(dp128
I0
I9732
sI1
I1380
sI2
I8532
sI3
I22175
sI4
I1634
sI5
I44
sI6
I2
ssg17
(dp129
I0
I43499
ssg19
(dp130
I0
I43171
sI1
I292
sI2
I36
sss.