(dp0
S'phone_number'
p1
(dp2
S'slashes'
p3
(dp4
I0
I1000
ssS'dots'
p5
(dp6
I0
I1000
ssS'lower'
p7
(dp8
I0
I1000
ssS'commas'
p9
(dp10
I0
I1000
ssS'upper'
p11
(dp12
I0
I1000
ssS'length'
p13
(dp14
I16
I635
sI17
I277
sI15
I88
ssS'spaces'
p15
(dp16
I0
I1000
ssS'numbers'
p17
(dp18
I11
I88
sI12
I635
sI13
I277
ssS'dashes'
p19
(dp20
I2
I1000
sssS'city'
p21
(dp22
g3
(dp23
I0
I998
ssg5
(dp24
I0
I998
ssg7
(dp25
I0
I1
sI2
I5
sI3
I25
sI4
I58
sI5
I160
sI6
I177
sI7
I133
sI8
I167
sI9
I116
sI10
I68
sI11
I39
sI12
I24
sI13
I15
sI14
I3
sI15
I3
sI16
I1
sI17
I1
sI22
I1
sI26
I1
ssg9
(dp26
I0
I998
ssg11
(dp27
I3
I6
sI4
I24
sI5
I57
sI6
I136
sI7
I178
sI8
I136
sI9
I155
sI10
I112
sI11
I66
sI12
I57
sI13
I19
sI14
I29
sI15
I12
sI16
I4
sI17
I2
sI18
I3
sI25
I1
sI30
I1
ssg13
(dp28
I33
I1
sI3
I3
sI4
I21
sI5
I41
sI6
I95
sI7
I85
sI8
I71
sI9
I82
sI10
I46
sI11
I27
sI12
I17
sI13
I10
sI14
I14
sI15
I9
sI16
I8
sI17
I5
sI18
I3
sI19
I1
sI20
I2
sI28
I457
ssg15
(dp29
I0
I469
sI1
I60
sI2
I11
sI3
I2
sI10
I1
sI12
I1
sI13
I4
sI14
I14
sI15
I8
sI16
I37
sI17
I40
sI18
I67
sI19
I69
sI20
I71
sI21
I81
sI22
I42
sI23
I15
sI24
I3
sI25
I3
ssg17
(dp30
I0
I997
sI1
I1
ssg19
(dp31
I0
I981
sI1
I11
sI2
I5
sI3
I1
sssS'first_name'
p32
(dp33
g3
(dp34
I0
I1998
ssg5
(dp35
I0
I1995
sI1
I3
ssg7
(dp36
I0
I31
sI1
I5
sI2
I54
sI3
I294
sI4
I511
sI5
I451
sI6
I341
sI7
I150
sI8
I102
sI9
I17
sI10
I11
sI11
I7
sI12
I7
sI13
I6
sI14
I5
sI15
I2
sI16
I2
sI17
I2
ssg9
(dp37
I0
I1998
ssg11
(dp38
I1
I7
sI2
I9
sI3
I61
sI4
I313
sI5
I526
sI6
I457
sI7
I325
sI8
I150
sI9
I86
sI10
I21
sI11
I10
sI12
I5
sI13
I6
sI14
I6
sI15
I5
sI16
I6
sI17
I3
sI18
I1
sI19
I1
ssg13
(dp39
I1
I7
sI2
I8
sI3
I60
sI4
I306
sI5
I518
sI6
I459
sI7
I327
sI8
I151
sI9
I89
sI10
I18
sI11
I15
sI12
I5
sI13
I5
sI14
I5
sI15
I5
sI16
I4
sI17
I6
sI18
I5
sI19
I2
sI20
I2
sI21
I1
ssg15
(dp40
I0
I1883
sI1
I84
sI2
I30
sI4
I1
ssg17
(dp41
I0
I1997
sI1
I1
ssg19
(dp42
I0
I1993
sI1
I5
sssS'last_name'
p43
(dp44
g3
(dp45
I0
I1000
ssg5
(dp46
I0
I1000
ssg7
(dp47
I2
I24
sI3
I129
sI4
I238
sI5
I303
sI6
I157
sI7
I96
sI8
I37
sI9
I16
ssg9
(dp48
I0
I1000
ssg11
(dp49
I3
I24
sI4
I129
sI5
I238
sI6
I303
sI7
I157
sI8
I96
sI9
I37
sI10
I16
ssg13
(dp50
I3
I24
sI4
I129
sI5
I238
sI6
I303
sI7
I157
sI8
I96
sI9
I37
sI10
I16
ssg15
(dp51
I0
I1000
ssg17
(dp52
I0
I1000
ssg19
(dp53
I0
I1000
sssS'zip'
p54
(dp55
g3
(dp56
I0
I998
ssg5
(dp57
I0
I998
ssg7
(dp58
I0
I998
ssg9
(dp59
I0
I998
ssg11
(dp60
I0
I998
ssg13
(dp61
I4
I36
sI5
I461
sI6
I1
sI8
I7
sI9
I40
sI10
I453
ssg15
(dp62
I0
I998
ssg17
(dp63
I8
I7
sI9
I493
sI4
I36
sI5
I461
sI6
I1
ssg19
(dp64
I0
I545
sI1
I453
sssS'ip'
p65
(dp66
g3
(dp67
I0
I1000
ssg5
(dp68
I3
I1000
ssg7
(dp69
I0
I1000
ssg9
(dp70
I0
I1000
ssg11
(dp71
I0
I1000
ssg13
(dp72
I9
I1
sI10
I12
sI11
I62
sI12
I162
sI13
I302
sI14
I329
sI15
I132
ssg15
(dp73
I0
I1000
ssg17
(dp74
I6
I1
sI7
I12
sI8
I62
sI9
I162
sI10
I302
sI11
I329
sI12
I132
ssg19
(dp75
I0
I1000
sssS'number'
p76
(dp77
g3
(dp78
I0
I2996
ssg5
(dp79
I0
I2996
ssg7
(dp80
I0
I2996
ssg9
(dp81
I0
I2996
ssg11
(dp82
I0
I2996
ssg13
(dp83
I1
I9
sI2
I90
sI3
I902
sI4
I996
sI5
I1
sI6
I893
sI8
I105
ssg15
(dp84
I0
I2996
ssg17
(dp85
I1
I9
sI2
I90
sI3
I902
sI4
I996
sI5
I1
sI6
I893
sI8
I105
ssg19
(dp86
I0
I2996
sssS'longitude'
p87
(dp88
g3
(dp89
I0
I1888
ssg5
(dp90
I0
I10
sI1
I1878
ssg7
(dp91
I0
I1888
ssg9
(dp92
I0
I1888
ssg11
(dp93
I0
I1888
ssg13
(dp94
I2
I9
sI3
I30
sI4
I50
sI5
I57
sI6
I41
sI7
I83
sI8
I397
sI9
I845
sI10
I273
sI11
I74
sI12
I29
ssg15
(dp95
I0
I1888
ssg17
(dp96
I1
I7
sI2
I50
sI3
I62
sI4
I61
sI5
I73
sI6
I414
sI7
I760
sI8
I291
sI9
I99
sI10
I71
ssg19
(dp97
I0
I308
sI1
I1580
sssS'latitude'
p98
(dp99
g3
(dp100
I0
I1888
ssg5
(dp101
I0
I2
sI1
I1886
ssg7
(dp102
I0
I1888
ssg9
(dp103
I0
I1888
ssg11
(dp104
I0
I1888
ssg13
(dp105
I2
I1
sI3
I1
sI4
I62
sI5
I102
sI6
I96
sI7
I838
sI8
I413
sI9
I4
sI10
I327
sI11
I44
ssg15
(dp106
I0
I1888
ssg17
(dp107
I2
I2
sI3
I66
sI4
I103
sI5
I92
sI6
I837
sI7
I413
sI8
I5
sI9
I370
ssg19
(dp108
I0
I1832
sI1
I56
sssS'state'
p109
(dp110
g3
(dp111
I0
I998
ssg5
(dp112
I0
I998
ssg7
(dp113
I0
I469
sI2
I2
sI3
I29
sI4
I17
sI5
I82
sI6
I152
sI7
I60
sI8
I49
sI9
I40
sI10
I26
sI11
I13
sI12
I8
sI13
I23
sI14
I12
sI15
I6
sI16
I2
sI17
I3
sI18
I5
ssg9
(dp114
I0
I998
ssg11
(dp115
I0
I9
sI2
I460
sI3
I2
sI4
I29
sI5
I17
sI6
I80
sI7
I152
sI8
I58
sI9
I43
sI10
I22
sI11
I27
sI12
I21
sI13
I21
sI14
I6
sI15
I22
sI16
I13
sI17
I6
sI18
I2
sI19
I3
sI20
I1
sI22
I4
ssg13
(dp116
I0
I1
sI1
I8
sI2
I460
sI3
I2
sI4
I29
sI5
I17
sI6
I80
sI7
I150
sI8
I58
sI9
I41
sI10
I16
sI11
I11
sI12
I23
sI13
I27
sI14
I5
sI15
I15
sI16
I25
sI17
I13
sI18
I1
sI19
I2
sI20
I9
sI21
I1
sI26
I4
ssg15
(dp117
I0
I907
sI1
I77
sI2
I12
sI3
I2
ssg17
(dp118
I0
I998
ssg19
(dp119
I0
I940
sI1
I46
sI2
I12
sssS'date'
p120
(dp121
g3
(dp122
I2
I998
ssg5
(dp123
I0
I998
ssg7
(dp124
I0
I998
ssg9
(dp125
I0
I998
ssg11
(dp126
I0
I998
ssg13
(dp127
I13
I128
sI14
I487
sI15
I383
ssg15
(dp128
I1
I998
ssg17
(dp129
I9
I128
sI10
I487
sI11
I383
ssg19
(dp130
I0
I998
sssS'email'
p131
(dp132
g3
(dp133
I0
I1000
ssg5
(dp134
I1
I926
sI2
I74
ssg7
(dp135
I8
I1
sI10
I4
sI11
I10
sI12
I30
sI13
I47
sI14
I77
sI15
I98
sI16
I107
sI17
I115
sI18
I105
sI19
I102
sI20
I86
sI21
I62
sI22
I57
sI23
I33
sI24
I23
sI25
I17
sI26
I10
sI27
I7
sI28
I1
sI29
I6
sI31
I1
sI33
I1
ssg9
(dp136
I0
I1000
ssg11
(dp137
I8
I1
sI10
I4
sI11
I10
sI12
I30
sI13
I47
sI14
I77
sI15
I98
sI16
I107
sI17
I115
sI18
I105
sI19
I102
sI20
I86
sI21
I62
sI22
I57
sI23
I33
sI24
I23
sI25
I17
sI26
I10
sI27
I7
sI28
I1
sI29
I6
sI31
I1
sI33
I1
ssg13
(dp138
I12
I1
sI13
I2
sI14
I7
sI15
I28
sI16
I65
sI17
I87
sI18
I102
sI19
I109
sI20
I100
sI21
I131
sI22
I93
sI23
I77
sI24
I64
sI25
I45
sI26
I29
sI27
I21
sI28
I20
sI29
I6
sI30
I4
sI31
I4
sI32
I2
sI33
I2
sI35
I1
ssg15
(dp139
I0
I1000
ssg17
(dp140
I0
I472
sI1
I411
sI2
I98
sI3
I7
sI4
I11
sI5
I1
ssg19
(dp141
I0
I975
sI1
I25
sss.