(dp0
S'phone_number'
p1
(dp2
S'slashes'
p3
(dp4
I0
I2000
ssS'dots'
p5
(dp6
I0
I2000
ssS'lower'
p7
(dp8
I0
I2000
ssS'commas'
p9
(dp10
I0
I2000
ssS'upper'
p11
(dp12
I0
I2000
ssS'length'
p13
(dp14
I16
I635
sI17
I277
sI12
I3
sI15
I1085
ssS'spaces'
p15
(dp16
I0
I2000
ssS'numbers'
p17
(dp18
I8
I3
sI11
I1085
sI12
I635
sI13
I277
ssS'dashes'
p19
(dp20
I2
I2000
sssS'city'
p21
(dp22
g3
(dp23
I0
I1008
ssg5
(dp24
I0
I998
sI1
I10
ssg7
(dp25
I2
I3
sI3
I37
sI4
I88
sI5
I192
sI6
I221
sI7
I162
sI8
I133
sI9
I87
sI10
I38
sI11
I22
sI12
I12
sI13
I8
sI14
I2
sI15
I2
sI16
I1
ssg9
(dp26
I0
I1008
ssg11
(dp27
I3
I3
sI4
I36
sI5
I83
sI6
I187
sI7
I208
sI8
I151
sI9
I134
sI10
I87
sI11
I54
sI12
I24
sI13
I19
sI14
I11
sI15
I7
sI16
I1
sI17
I1
sI18
I2
ssg13
(dp28
I3
I3
sI4
I36
sI5
I82
sI6
I182
sI7
I201
sI8
I140
sI9
I121
sI10
I90
sI11
I54
sI12
I42
sI13
I19
sI14
I16
sI15
I12
sI16
I5
sI17
I2
sI18
I1
sI19
I1
sI20
I1
ssg15
(dp29
I0
I821
sI1
I181
sI2
I6
ssg17
(dp30
I0
I1008
ssg19
(dp31
I0
I1007
sI1
I1
sssS'first_name'
p32
(dp33
g3
(dp34
I0
I2998
ssg5
(dp35
I0
I2995
sI1
I3
ssg7
(dp36
I0
I31
sI1
I5
sI2
I78
sI3
I460
sI4
I785
sI5
I706
sI6
I525
sI7
I215
sI8
I127
sI9
I20
sI10
I15
sI11
I7
sI12
I7
sI13
I6
sI14
I5
sI15
I2
sI16
I2
sI17
I2
ssg9
(dp37
I0
I2998
ssg11
(dp38
I1
I7
sI2
I9
sI3
I85
sI4
I479
sI5
I800
sI6
I712
sI7
I509
sI8
I215
sI9
I111
sI10
I24
sI11
I14
sI12
I5
sI13
I6
sI14
I6
sI15
I5
sI16
I6
sI17
I3
sI18
I1
sI19
I1
ssg13
(dp39
I1
I7
sI2
I8
sI3
I84
sI4
I472
sI5
I792
sI6
I714
sI7
I511
sI8
I216
sI9
I114
sI10
I21
sI11
I19
sI12
I5
sI13
I5
sI14
I5
sI15
I5
sI16
I4
sI17
I6
sI18
I5
sI19
I2
sI20
I2
sI21
I1
ssg15
(dp40
I0
I2883
sI1
I84
sI2
I30
sI4
I1
ssg17
(dp41
I0
I2997
sI1
I1
ssg19
(dp42
I0
I2993
sI1
I5
sssS'last_name'
p43
(dp44
g3
(dp45
I0
I2998
ssg5
(dp46
I0
I2998
ssg7
(dp47
I0
I1
sI2
I51
sI3
I285
sI4
I497
sI5
I793
sI6
I491
sI7
I327
sI8
I242
sI9
I155
sI10
I68
sI11
I39
sI12
I24
sI13
I15
sI14
I3
sI15
I3
sI16
I1
sI17
I1
sI22
I1
sI26
I1
ssg9
(dp48
I0
I2998
ssg11
(dp49
I3
I52
sI4
I284
sI5
I496
sI6
I769
sI7
I492
sI8
I330
sI9
I230
sI10
I151
sI11
I66
sI12
I57
sI13
I19
sI14
I29
sI15
I12
sI16
I4
sI17
I2
sI18
I3
sI25
I1
sI30
I1
ssg13
(dp50
I33
I1
sI3
I49
sI4
I281
sI5
I480
sI6
I728
sI7
I399
sI8
I265
sI9
I157
sI10
I85
sI11
I27
sI12
I17
sI13
I10
sI14
I14
sI15
I9
sI16
I8
sI17
I5
sI18
I3
sI19
I1
sI20
I2
sI28
I457
ssg15
(dp51
I0
I2469
sI1
I60
sI2
I11
sI3
I2
sI10
I1
sI12
I1
sI13
I4
sI14
I14
sI15
I8
sI16
I37
sI17
I40
sI18
I67
sI19
I69
sI20
I71
sI21
I81
sI22
I42
sI23
I15
sI24
I3
sI25
I3
ssg17
(dp52
I0
I2997
sI1
I1
ssg19
(dp53
I0
I2981
sI1
I11
sI2
I5
sI3
I1
sssS'isbn'
p54
(dp55
g3
(dp56
I0
I1443
ssg5
(dp57
I0
I1443
ssg7
(dp58
I0
I1443
ssg9
(dp59
I0
I1443
ssg11
(dp60
I0
I1319
sI1
I124
ssg13
(dp61
I8
I88
sI9
I1078
sI10
I273
sI7
I4
ssg15
(dp62
I0
I1443
ssg17
(dp63
I8
I88
sI9
I1202
sI10
I149
sI7
I4
ssg19
(dp64
I0
I1443
sssS'description'
p65
(dp66
g3
(dp67
I0
I995
sI1
I5
ssg5
(dp68
I0
I1000
ssg7
(dp69
I6
I1
sI7
I1
sI8
I2
sI9
I5
sI10
I4
sI11
I3
sI12
I8
sI13
I8
sI14
I14
sI15
I26
sI16
I21
sI17
I23
sI18
I22
sI19
I19
sI20
I27
sI21
I20
sI22
I32
sI23
I27
sI24
I25
sI25
I30
sI26
I36
sI27
I23
sI28
I27
sI29
I31
sI30
I28
sI31
I25
sI32
I29
sI33
I12
sI34
I20
sI35
I21
sI36
I20
sI37
I30
sI38
I17
sI39
I21
sI40
I30
sI41
I20
sI42
I16
sI43
I13
sI44
I20
sI45
I18
sI46
I15
sI47
I9
sI48
I18
sI49
I7
sI50
I14
sI51
I13
sI52
I15
sI53
I4
sI54
I10
sI55
I7
sI56
I5
sI57
I8
sI58
I3
sI59
I5
sI60
I7
sI61
I7
sI62
I7
sI63
I10
sI64
I7
sI65
I3
sI66
I7
sI67
I3
sI68
I3
sI69
I7
sI70
I3
sI71
I5
sI72
I2
sI73
I3
sI76
I1
sI78
I2
sI79
I1
sI81
I3
sI83
I1
sI84
I2
sI86
I1
sI87
I1
sI90
I1
sI93
I2
sI105
I1
sI118
I1
sI120
I1
ssg9
(dp70
I0
I794
sI1
I179
sI2
I9
sI3
I13
sI4
I3
sI6
I2
ssg11
(dp71
I7
I1
sI8
I1
sI9
I2
sI10
I5
sI11
I4
sI12
I3
sI13
I8
sI14
I8
sI15
I14
sI16
I26
sI17
I20
sI18
I23
sI19
I22
sI20
I17
sI21
I26
sI22
I19
sI23
I33
sI24
I28
sI25
I26
sI26
I30
sI27
I36
sI28
I24
sI29
I28
sI30
I30
sI31
I27
sI32
I26
sI33
I24
sI34
I12
sI35
I22
sI36
I20
sI37
I18
sI38
I28
sI39
I18
sI40
I23
sI41
I32
sI42
I22
sI43
I15
sI44
I12
sI45
I19
sI46
I18
sI47
I17
sI48
I7
sI49
I18
sI50
I8
sI51
I15
sI52
I12
sI53
I15
sI54
I8
sI55
I9
sI56
I7
sI57
I6
sI58
I8
sI59
I3
sI60
I3
sI61
I7
sI62
I9
sI63
I6
sI64
I10
sI65
I7
sI66
I3
sI67
I5
sI68
I3
sI69
I3
sI70
I7
sI71
I4
sI72
I6
sI74
I3
sI76
I1
sI77
I1
sI79
I4
sI80
I1
sI82
I1
sI83
I1
sI84
I1
sI86
I1
sI87
I1
sI88
I1
sI89
I1
sI91
I2
sI94
I2
sI107
I1
sI119
I1
sI121
I1
ssg13
(dp72
I7
I1
sI8
I1
sI9
I2
sI10
I5
sI11
I4
sI12
I3
sI13
I2
sI14
I7
sI15
I6
sI16
I9
sI17
I15
sI18
I26
sI19
I19
sI20
I21
sI21
I13
sI22
I22
sI23
I17
sI24
I19
sI25
I18
sI26
I19
sI27
I21
sI28
I29
sI29
I21
sI30
I46
sI31
I18
sI32
I22
sI33
I19
sI34
I28
sI35
I30
sI36
I15
sI37
I17
sI38
I22
sI39
I13
sI40
I19
sI41
I16
sI42
I29
sI43
I19
sI44
I16
sI45
I14
sI46
I35
sI47
I13
sI48
I18
sI49
I5
sI50
I9
sI51
I19
sI52
I9
sI53
I24
sI54
I5
sI55
I10
sI56
I15
sI57
I12
sI58
I4
sI59
I15
sI60
I13
sI61
I14
sI62
I7
sI63
I5
sI64
I6
sI65
I7
sI66
I4
sI67
I6
sI68
I2
sI69
I4
sI70
I6
sI71
I4
sI72
I4
sI73
I12
sI74
I7
sI75
I5
sI76
I5
sI77
I3
sI78
I7
sI79
I2
sI80
I3
sI81
I3
sI82
I3
sI83
I3
sI84
I4
sI87
I2
sI88
I1
sI89
I2
sI91
I2
sI92
I1
sI93
I3
sI94
I1
sI96
I2
sI99
I1
sI101
I2
sI103
I1
sI106
I4
sI125
I1
sI142
I1
sI145
I1
ssg15
(dp73
I0
I28
sI1
I90
sI2
I92
sI3
I192
sI4
I168
sI5
I116
sI6
I86
sI7
I88
sI8
I42
sI9
I43
sI10
I19
sI11
I15
sI12
I8
sI13
I5
sI14
I4
sI15
I2
sI17
I1
sI18
I1
ssg17
(dp74
I0
I998
sI2
I2
ssg19
(dp75
I0
I948
sI1
I37
sI2
I12
sI3
I3
sssS'zip'
p76
(dp77
g3
(dp78
I0
I1998
ssg5
(dp79
I0
I1998
ssg7
(dp80
I0
I1998
ssg9
(dp81
I0
I1998
ssg11
(dp82
I0
I1998
ssg13
(dp83
I3
I2
sI4
I86
sI5
I1409
sI6
I1
sI8
I7
sI9
I40
sI10
I453
ssg15
(dp84
I0
I1998
ssg17
(dp85
I3
I2
sI4
I86
sI5
I1409
sI6
I1
sI8
I7
sI9
I493
ssg19
(dp86
I0
I1545
sI1
I453
sssS'url'
p87
(dp88
g3
(dp89
I0
I1000
ssg5
(dp90
I0
I1000
ssg7
(dp91
I0
I1000
ssg9
(dp92
I0
I1000
ssg11
(dp93
I0
I1000
ssg13
(dp94
I0
I1000
ssg15
(dp95
I0
I1000
ssg17
(dp96
I0
I1000
ssg19
(dp97
I0
I1000
sssS'ip'
p98
(dp99
g3
(dp100
I0
I2000
ssg5
(dp101
I3
I2000
ssg7
(dp102
I0
I2000
ssg9
(dp103
I0
I2000
ssg11
(dp104
I0
I2000
ssg13
(dp105
I9
I4
sI10
I19
sI11
I113
sI12
I324
sI13
I591
sI14
I675
sI15
I274
ssg15
(dp106
I0
I2000
ssg17
(dp107
I6
I4
sI7
I19
sI8
I113
sI9
I324
sI10
I591
sI11
I675
sI12
I274
ssg19
(dp108
I0
I2000
sssS'number'
p109
(dp110
g3
(dp111
I0
I35058
ssg5
(dp112
I0
I2996
sI1
I32062
ssg7
(dp113
I0
I35058
ssg9
(dp114
I0
I2997
sI1
I32061
ssg11
(dp115
I0
I35058
ssg13
(dp116
I1
I9
sI2
I90
sI3
I902
sI4
I996
sI5
I1
sI6
I894
sI8
I105
sI10
I318
sI11
I26940
sI12
I4803
ssg15
(dp117
I0
I2996
sI1
I32062
ssg17
(dp118
I1
I9
sI2
I90
sI3
I903
sI4
I996
sI5
I1
sI6
I1211
sI7
I26940
sI8
I4908
ssg19
(dp119
I0
I35058
sssS'longitude'
p120
(dp121
g3
(dp122
I0
I3896
ssg5
(dp123
I0
I10
sI1
I3886
ssg7
(dp124
I0
I3896
ssg9
(dp125
I0
I3896
ssg11
(dp126
I0
I3896
ssg13
(dp127
I2
I9
sI3
I30
sI4
I50
sI5
I57
sI6
I61
sI7
I173
sI8
I1190
sI9
I1950
sI10
I273
sI11
I74
sI12
I29
ssg15
(dp128
I0
I3896
ssg17
(dp129
I1
I7
sI2
I50
sI3
I62
sI4
I81
sI5
I163
sI6
I1207
sI7
I1865
sI8
I291
sI9
I99
sI10
I71
ssg19
(dp130
I0
I308
sI1
I3588
sssS'date'
p131
(dp132
g3
(dp133
I2
I1998
ssg5
(dp134
I0
I1998
ssg7
(dp135
I0
I1998
ssg9
(dp136
I0
I1998
ssg11
(dp137
I0
I1998
ssg13
(dp138
I8
I222
sI9
I598
sI10
I180
sI13
I128
sI14
I487
sI15
I383
ssg15
(dp139
I0
I1000
sI1
I998
ssg17
(dp140
I6
I222
sI7
I598
sI8
I180
sI9
I128
sI10
I487
sI11
I383
ssg19
(dp141
I0
I1998
sssS'state'
p142
(dp143
g3
(dp144
I0
I3008
ssg5
(dp145
I0
I3008
ssg7
(dp146
I0
I2000
sI3
I1008
ssg9
(dp147
I0
I3008
ssg11
(dp148
I2
I2000
sI4
I1008
ssg13
(dp149
I2
I2000
sI4
I1008
ssg15
(dp150
I0
I3008
ssg17
(dp151
I0
I3008
ssg19
(dp152
I0
I3008
sssS'full_name'
p153
(dp154
g3
(dp155
I0
I34505
ssg5
(dp156
I0
I34327
sI1
I131
sI2
I37
sI3
I10
ssg7
(dp157
I0
I32180
sI1
I2
sI2
I1
sI3
I3
sI4
I16
sI5
I26
sI6
I86
sI7
I174
sI8
I300
sI9
I400
sI10
I394
sI11
I325
sI12
I267
sI13
I151
sI14
I78
sI15
I51
sI16
I20
sI17
I5
sI18
I17
sI19
I2
sI20
I2
sI22
I3
sI25
I1
sI30
I1
ssg9
(dp158
I0
I2439
sI1
I32066
ssg11
(dp159
I3
I2
sI4
I1
sI5
I5
sI6
I17
sI7
I76
sI8
I296
sI9
I924
sI10
I2250
sI11
I4144
sI12
I5400
sI13
I6195
sI14
I5662
sI15
I4000
sI16
I2556
sI17
I1374
sI18
I787
sI19
I395
sI20
I179
sI21
I108
sI22
I56
sI23
I37
sI24
I21
sI25
I12
sI26
I6
sI28
I1
sI36
I1
ssg13
(dp160
I3
I2
sI4
I1
sI5
I2
sI6
I2
sI7
I5
sI8
I21
sI9
I79
sI10
I211
sI11
I446
sI12
I860
sI13
I1481
sI14
I2822
sI15
I4130
sI16
I5090
sI17
I5559
sI18
I5005
sI19
I3539
sI20
I2320
sI21
I1294
sI22
I756
sI23
I400
sI24
I203
sI25
I117
sI26
I49
sI27
I56
sI28
I24
sI29
I17
sI30
I5
sI31
I7
sI32
I1
sI41
I1
ssg15
(dp161
I0
I11
sI1
I2149
sI2
I8496
sI3
I22169
sI4
I1634
sI5
I44
sI6
I2
ssg17
(dp162
I0
I34505
ssg19
(dp163
I0
I34351
sI1
I154
sssS'year'
p164
(dp165
g3
(dp166
I0
I2441
ssg5
(dp167
I0
I2441
ssg7
(dp168
I0
I2441
ssg9
(dp169
I0
I2441
ssg11
(dp170
I0
I2441
ssg13
(dp171
I1
I20
sI4
I2421
ssg15
(dp172
I0
I2441
ssg17
(dp173
I1
I20
sI4
I2421
ssg19
(dp174
I0
I2441
sssS'latitude'
p175
(dp176
g3
(dp177
I0
I3896
ssg5
(dp178
I0
I2
sI1
I3894
ssg7
(dp179
I0
I3896
ssg9
(dp180
I0
I3896
ssg11
(dp181
I0
I3896
ssg13
(dp182
I2
I1
sI3
I1
sI4
I62
sI5
I116
sI6
I212
sI7
I1807
sI8
I1322
sI9
I4
sI10
I327
sI11
I44
ssg15
(dp183
I0
I3896
ssg17
(dp184
I2
I2
sI3
I66
sI4
I117
sI5
I208
sI6
I1806
sI7
I1322
sI8
I5
sI9
I370
ssg19
(dp185
I0
I3840
sI1
I56
sssS'email'
p186
(dp187
g3
(dp188
I0
I1000
ssg5
(dp189
I1
I913
sI2
I87
ssg7
(dp190
I8
I1
sI9
I1
sI10
I4
sI11
I9
sI12
I26
sI13
I43
sI14
I75
sI15
I98
sI16
I114
sI17
I99
sI18
I103
sI19
I92
sI20
I96
sI21
I70
sI22
I49
sI23
I42
sI24
I29
sI25
I22
sI26
I12
sI27
I6
sI28
I3
sI29
I1
sI30
I3
sI31
I1
sI32
I1
ssg9
(dp191
I0
I1000
ssg11
(dp192
I8
I1
sI9
I1
sI10
I4
sI11
I9
sI12
I26
sI13
I43
sI14
I75
sI15
I98
sI16
I114
sI17
I99
sI18
I103
sI19
I92
sI20
I96
sI21
I70
sI22
I49
sI23
I42
sI24
I29
sI25
I22
sI26
I12
sI27
I6
sI28
I3
sI29
I1
sI30
I3
sI31
I1
sI32
I1
ssg13
(dp193
I13
I3
sI14
I9
sI15
I38
sI16
I42
sI17
I96
sI18
I100
sI19
I92
sI20
I120
sI21
I101
sI22
I102
sI23
I82
sI24
I64
sI25
I50
sI26
I32
sI27
I24
sI28
I21
sI29
I11
sI30
I4
sI31
I3
sI32
I3
sI33
I2
sI34
I1
ssg15
(dp194
I0
I1000
ssg17
(dp195
I0
I479
sI1
I418
sI2
I91
sI3
I9
sI4
I2
sI5
I1
ssg19
(dp196
I0
I983
sI1
I17
sssS'street_address'
p197
(dp198
g3
(dp199
I0
I1000
ssg5
(dp200
I0
I1000
ssg7
(dp201
I4
I3
sI5
I14
sI6
I37
sI7
I78
sI8
I103
sI9
I142
sI10
I172
sI11
I159
sI12
I91
sI13
I86
sI14
I61
sI15
I30
sI16
I13
sI17
I7
sI18
I3
sI19
I1
ssg9
(dp202
I0
I1000
ssg11
(dp203
I5
I2
sI6
I7
sI7
I17
sI8
I29
sI9
I80
sI10
I98
sI11
I139
sI12
I160
sI13
I153
sI14
I95
sI15
I88
sI16
I59
sI17
I40
sI18
I19
sI19
I7
sI20
I5
sI21
I2
ssg13
(dp204
I9
I1
sI10
I4
sI11
I12
sI12
I26
sI13
I47
sI14
I81
sI15
I97
sI16
I119
sI17
I113
sI18
I136
sI19
I105
sI20
I86
sI21
I64
sI22
I43
sI23
I24
sI24
I20
sI25
I11
sI26
I6
sI27
I4
sI28
I1
ssg15
(dp205
I2
I885
sI3
I112
sI4
I3
ssg17
(dp206
I1
I207
sI2
I179
sI3
I202
sI4
I214
sI5
I195
sI6
I3
ssg19
(dp207
I0
I1000
sss.