(dp0
S'city'
p1
(dp2
S'city'
p3
I6
ssS'first_name'
p4
(dp5
S'last name'
p6
I6
ssS'last_name'
p7
(dp8
g6
I6
ssS'zip'
p9
(dp10
S'Zip'
p11
I6
ssS'web'
p12
(dp13
S'url'
p14
I6
ssS'phone2'
p15
(dp16
S'Phone_Number'
p17
I6
ssS'phone1'
p18
(dp19
g17
I6
ssS'county'
p20
(dp21
S'location'
p22
I6
ssS'state'
p23
(dp24
S'state'
p25
I6
ssS'company_name'
p26
(dp27
S'city'
p28
I6
ssS'address'
p29
(dp30
g28
I6
ssS'email'
p31
(dp32
S'email'
p33
I6
ss.