(dp0
S'City'
p1
(dp2
S'city'
p3
I2
ssS'last_name'
p4
(dp5
S'last name'
p6
I8
sS'isbn'
p7
I2
ssS'ISBN'
p8
(dp9
S'isbn'
p10
I1
ssS'county'
p11
(dp12
g7
I1
sS'location'
p13
I8
ssS'State'
p14
(dp15
S'state'
p16
I2
ssS'street'
p17
(dp18
S'street address'
p19
I3
ssS'baths'
p20
(dp21
S'Number'
p22
I3
ssS'Latitude'
p23
(dp24
S'latitude'
p25
I2
ssS'id'
p26
(dp27
S'year'
p28
I1
ssS'city'
p29
(dp30
S'city'
p31
I11
sg7
I1
ssS'first_name'
p32
(dp33
g6
I8
sg7
I2
ssS'zip'
p34
(dp35
S'Zip'
p36
I11
sS'zip'
p37
I1
ssS'AUTHOR'
p38
(dp39
S'city'
p40
I1
ssS'Price'
p41
(dp42
S'year'
p43
I2
ssS'sale_date'
p44
(dp45
S'city'
p46
I3
ssS'state'
p47
(dp48
S'state'
p49
I11
sg7
I1
ssS'Last_Login'
p50
(dp51
S'date'
p52
I2
ssS'company_name'
p53
(dp54
S'city'
p55
I8
sS'l'
p56
I1
ssS'latitude'
p57
(dp58
S'Latitude'
p59
I3
ssS'sq__ft'
p60
(dp61
S'Year'
p62
I3
ssS'type'
p63
(dp64
S'city'
p65
I3
ssS'email'
p66
(dp67
S'latitude'
p68
I2
sS'email'
p69
I8
ssS'Account_Created'
p70
(dp71
g52
I2
ssS'REVIEW_DATE'
p72
(dp73
g52
I1
ssS'Name'
p74
(dp75
S'last name'
p76
I2
ssS'web'
p77
(dp78
S'url'
p79
I8
sS'u'
p80
I1
ssS'phone2'
p81
(dp82
S'Phone_Number'
p83
I8
sS'phone_number'
p84
I1
ssS'Country'
p85
(dp86
S'location'
p87
I2
ssS'price'
p88
(dp89
g22
I3
ssS'phone1'
p90
(dp91
g83
I8
sg84
I1
ssS'Product'
p92
(dp93
g40
I2
ssS'Longitude'
p94
(dp95
S'longitude'
p96
I2
ssS'phone'
p97
(dp98
S'phone_number'
p99
I1
ssS'Transaction_date'
p100
(dp101
g52
I2
ssS'address'
p102
(dp103
g55
I8
sg7
I1
ssS'ip_address'
p104
(dp105
S'ip'
p106
I1
ssS'DISCOUNTED_PRICE'
p107
(dp108
g25
I1
ssS'gender'
p109
(dp110
S'isbn'
p111
I1
ssS'longitude'
p112
(dp113
S'Longitude'
p114
I3
ssS'beds'
p115
(dp116
g22
I3
ssS'Payment_Type'
p117
(dp118
g3
I2
ss.