(dp0
S'City'
p1
(dp2
S'city'
p3
I1
ssS'last_name'
p4
(dp5
S'last name'
p6
I8
ssS'ISBN'
p7
(dp8
S'isbn'
p9
I1
ssS'county'
p10
(dp11
S'location'
p12
I8
ssS'State'
p13
(dp14
S'state'
p15
I1
ssS'street'
p16
(dp17
S'street address'
p18
I3
ssS'baths'
p19
(dp20
S'Number'
p21
I3
ssS'Latitude'
p22
(dp23
S'latitude'
p24
I1
ssS'city'
p25
(dp26
S'city'
p27
I11
ssS'first_name'
p28
(dp29
g6
I8
ssS'zip'
p30
(dp31
S'Zip'
p32
I11
ssS'AUTHOR'
p33
(dp34
S'city'
p35
I1
ssS'Price'
p36
(dp37
S'year'
p38
I1
ssS'sale_date'
p39
(dp40
S'city'
p41
I3
ssS'state'
p42
(dp43
S'state'
p44
I11
ssS'Last_Login'
p45
(dp46
S'date'
p47
I1
ssS'company_name'
p48
(dp49
S'city'
p50
I8
ssS'latitude'
p51
(dp52
S'Latitude'
p53
I3
ssS'sq__ft'
p54
(dp55
S'Year'
p56
I3
ssS'type'
p57
(dp58
S'city'
p59
I3
ssS'email'
p60
(dp61
S'email'
p62
I8
ssS'Account_Created'
p63
(dp64
g47
I1
ssS'REVIEW_DATE'
p65
(dp66
g47
I1
ssS'Name'
p67
(dp68
S'last name'
p69
I1
ssS'web'
p70
(dp71
S'url'
p72
I8
ssS'phone2'
p73
(dp74
S'Phone_Number'
p75
I8
ssS'Country'
p76
(dp77
S'location'
p78
I1
ssS'price'
p79
(dp80
g21
I3
ssS'phone1'
p81
(dp82
g75
I8
ssS'Product'
p83
(dp84
g35
I1
ssS'Longitude'
p85
(dp86
S'longitude'
p87
I1
ssS'Transaction_date'
p88
(dp89
g47
I1
ssS'address'
p90
(dp91
g50
I8
ssS'DISCOUNTED_PRICE'
p92
(dp93
g24
I1
ssS'longitude'
p94
(dp95
S'Longitude'
p96
I3
ssS'beds'
p97
(dp98
g21
I3
ssS'Payment_Type'
p99
(dp100
g3
I1
ss.