(dp0
S'city'
p1
(dp2
S'city'
p3
I10
ssS'first_name'
p4
(dp5
S'last name'
p6
I8
ssS'last_name'
p7
(dp8
g6
I8
ssS'county'
p9
(dp10
S'location'
p11
I8
ssS'zip'
p12
(dp13
S'Zip'
p14
I10
ssS'web'
p15
(dp16
S'url'
p17
I8
ssS'phone2'
p18
(dp19
S'Phone_Number'
p20
I8
ssS'price'
p21
(dp22
S'Number'
p23
I2
ssS'phone1'
p24
(dp25
g20
I8
ssS'longitude'
p26
(dp27
S'Longitude'
p28
I2
ssS'beds'
p29
(dp30
g23
I2
ssS'sale_date'
p31
(dp32
S'city'
p33
I2
ssS'state'
p34
(dp35
S'state'
p36
I10
ssS'street'
p37
(dp38
S'street address'
p39
I2
ssS'company_name'
p40
(dp41
S'city'
p42
I8
ssS'baths'
p43
(dp44
g23
I2
ssS'latitude'
p45
(dp46
S'Latitude'
p47
I2
ssS'sq__ft'
p48
(dp49
S'Year'
p50
I2
ssS'type'
p51
(dp52
S'city'
p53
I2
ssS'email'
p54
(dp55
S'email'
p56
I8
ssS'address'
p57
(dp58
g42
I8
ss.