(dp0
S'city'
p1
(dp2
S'city'
p3
I11
ssS'first_name'
p4
(dp5
S'last name'
p6
I8
ssS'last_name'
p7
(dp8
g6
I8
ssS'beds'
p9
(dp10
S'Number'
p11
I3
ssS'zip'
p12
(dp13
S'Zip'
p14
I11
ssS'web'
p15
(dp16
S'url'
p17
I8
ssS'phone2'
p18
(dp19
S'Phone_Number'
p20
I8
ssS'price'
p21
(dp22
g11
I3
ssS'phone1'
p23
(dp24
g20
I8
ssS'longitude'
p25
(dp26
S'Longitude'
p27
I3
ssS'county'
p28
(dp29
S'location'
p30
I8
ssS'sale_date'
p31
(dp32
S'city'
p33
I3
ssS'state'
p34
(dp35
S'state'
p36
I11
ssS'street'
p37
(dp38
S'street address'
p39
I3
ssS'company_name'
p40
(dp41
S'city'
p42
I8
ssS'baths'
p43
(dp44
g11
I3
ssS'latitude'
p45
(dp46
S'Latitude'
p47
I3
ssS'sq__ft'
p48
(dp49
S'Year'
p50
I3
ssS'type'
p51
(dp52
S'city'
p53
I3
ssS'email'
p54
(dp55
S'email'
p56
I8
ssS'address'
p57
(dp58
g42
I8
ss.