(dp0
S'City'
p1
(dp2
S'city'
p3
I2
ssS'last_name'
p4
(dp5
S'last name'
p6
I8
sS'isbn'
p7
I1
ssS'ISBN'
p8
(dp9
S'isbn'
p10
I1
ssS'county'
p11
(dp12
g7
I1
sS'location'
p13
I8
ssS'State'
p14
(dp15
S'state'
p16
I2
ssS'street'
p17
(dp18
S'street address'
p19
I3
ssS'baths'
p20
(dp21
S'Number'
p22
I3
ssS'Latitude'
p23
(dp24
S'latitude'
p25
I2
ssS'city'
p26
(dp27
S'city'
p28
I11
sg7
I1
ssS'first_name'
p29
(dp30
g6
I8
sg7
I1
ssS'zip'
p31
(dp32
S'zip'
p33
I1
sS'Zip'
p34
I11
ssS'AUTHOR'
p35
(dp36
S'city'
p37
I1
ssS'Price'
p38
(dp39
S'year'
p40
I2
ssS'sale_date'
p41
(dp42
S'city'
p43
I3
ssS'state'
p44
(dp45
S'state'
p46
I11
sg7
I1
ssS'Last_Login'
p47
(dp48
S'date'
p49
I2
ssS'company_name'
p50
(dp51
S'city'
p52
I8
sS'l'
p53
I1
ssS'latitude'
p54
(dp55
S'Latitude'
p56
I3
ssS'sq__ft'
p57
(dp58
S'Year'
p59
I3
ssS'type'
p60
(dp61
S'city'
p62
I3
ssS'email'
p63
(dp64
S'latitude'
p65
I1
sS'email'
p66
I8
ssS'Account_Created'
p67
(dp68
g49
I2
ssS'REVIEW_DATE'
p69
(dp70
g49
I1
ssS'Name'
p71
(dp72
S'last name'
p73
I2
ssS'web'
p74
(dp75
S'url'
p76
I8
sS'u'
p77
I1
ssS'phone2'
p78
(dp79
S'Phone_Number'
p80
I8
sS'phone_number'
p81
I1
ssS'Country'
p82
(dp83
S'location'
p84
I2
ssS'price'
p85
(dp86
g22
I3
ssS'phone1'
p87
(dp88
g80
I8
sg81
I1
ssS'Product'
p89
(dp90
g37
I2
ssS'Longitude'
p91
(dp92
S'longitude'
p93
I2
ssS'Transaction_date'
p94
(dp95
g49
I2
ssS'address'
p96
(dp97
g52
I8
sg7
I1
ssS'DISCOUNTED_PRICE'
p98
(dp99
g25
I1
ssS'longitude'
p100
(dp101
S'Longitude'
p102
I3
ssS'beds'
p103
(dp104
g22
I3
ssS'Payment_Type'
p105
(dp106
g3
I2
ss.