(dp0
S'City'
p1
(dp2
S'city'
p3
I2
ssS'last_name'
p4
(dp5
S'last name'
p6
I8
sS'isbn'
p7
I1
ssS'ISBN'
p8
(dp9
S'isbn'
p10
I1
sS'zip'
p11
I1
ssS'county'
p12
(dp13
g7
I1
sS'location'
p14
I8
ssS'State'
p15
(dp16
S'state'
p17
I2
ssS'street'
p18
(dp19
S'street address'
p20
I3
ssS'baths'
p21
(dp22
S'Number'
p23
I3
ssS'Latitude'
p24
(dp25
S'latitude'
p26
I2
ssS'city'
p27
(dp28
S'city'
p29
I11
sg7
I1
ssS'first_name'
p30
(dp31
g6
I8
sg7
I1
ssS'zip'
p32
(dp33
S'Zip'
p34
I11
sS'zip'
p35
I1
ssS'AUTHOR'
p36
(dp37
S'city'
p38
I1
sS'state'
p39
I1
ssS'Price'
p40
(dp41
S'year'
p42
I2
ssS'sale_date'
p43
(dp44
S'city'
p45
I3
ssS'state'
p46
(dp47
S'state'
p48
I11
sg7
I1
ssS'Last_Login'
p49
(dp50
S'date'
p51
I2
ssS'company_name'
p52
(dp53
S'city'
p54
I8
sS'l'
p55
I1
ssS'latitude'
p56
(dp57
S'Latitude'
p58
I3
ssS'sq__ft'
p59
(dp60
S'Year'
p61
I3
ssS'type'
p62
(dp63
S'city'
p64
I3
ssS'email'
p65
(dp66
S'latitude'
p67
I1
sS'email'
p68
I8
ssS'Account_Created'
p69
(dp70
g51
I2
ssS'REVIEW_DATE'
p71
(dp72
g51
I2
ssS'Name'
p73
(dp74
S'last name'
p75
I2
ssS'web'
p76
(dp77
S'url'
p78
I8
sS'u'
p79
I1
ssS'phone2'
p80
(dp81
S'Phone_Number'
p82
I8
sS'phone_number'
p83
I1
ssS'Country'
p84
(dp85
S'location'
p86
I2
ssS'price'
p87
(dp88
g23
I3
ssS'phone1'
p89
(dp90
g82
I8
sg83
I1
ssS'Product'
p91
(dp92
g38
I2
ssS'Longitude'
p93
(dp94
S'longitude'
p95
I2
ssS'Transaction_date'
p96
(dp97
g51
I2
ssS'address'
p98
(dp99
g54
I8
sg7
I1
ssS'DISCOUNTED_PRICE'
p100
(dp101
g26
I2
ssS'longitude'
p102
(dp103
S'Longitude'
p104
I3
ssS'beds'
p105
(dp106
g23
I3
ssS'Payment_Type'
p107
(dp108
g3
I2
ss.