(dp0
S'phone_number'
p1
(dp2
S'slashes'
p3
(dp4
I0
I1000
ssS'percent sign'
p5
(dp6
I0
I1000
ssS'length'
p7
(dp8
I16
I635
sI17
I277
sI15
I88
ssS'spaces'
p9
(dp10
I0
I1000
ssS'dollar sign'
p11
(dp12
I0
I1000
ssS'pound sign'
p13
(dp14
I0
I1000
ssS'decimal points'
p15
(dp16
I0
I1000
ssS'dashes'
p17
(dp18
I2
I1000
sssS'isbn'
p19
(dp20
g3
(dp21
I0
I1443
ssg5
(dp22
I0
I1443
ssg7
(dp23
I8
I88
sI9
I1078
sI10
I273
sI7
I4
ssg9
(dp24
I0
I1443
ssg11
(dp25
I0
I1443
ssg13
(dp26
I0
I1443
ssg15
(dp27
I0
I1443
ssg17
(dp28
I0
I1443
sssS'zip'
p29
(dp30
g3
(dp31
I0
I998
ssg5
(dp32
I0
I998
ssg7
(dp33
I4
I36
sI5
I461
sI6
I1
sI8
I7
sI9
I40
sI10
I453
ssg9
(dp34
I0
I998
ssg11
(dp35
I0
I998
ssg13
(dp36
I0
I998
ssg15
(dp37
I0
I998
ssg17
(dp38
I0
I545
sI1
I453
sssS'ip'
p39
(dp40
g3
(dp41
I0
I1000
ssg5
(dp42
I0
I1000
ssg7
(dp43
I9
I1
sI10
I12
sI11
I62
sI12
I162
sI13
I302
sI14
I329
sI15
I132
ssg9
(dp44
I0
I1000
ssg11
(dp45
I0
I1000
ssg13
(dp46
I0
I1000
ssg15
(dp47
I3
I1000
ssg17
(dp48
I0
I1000
sssS'number'
p49
(dp50
g3
(dp51
I0
I8995
ssg5
(dp52
I0
I8995
ssg7
(dp53
I1
I7002
sI2
I91
sI3
I904
sI4
I997
sI6
I1
ssg9
(dp54
I0
I8995
ssg11
(dp55
I0
I8995
ssg13
(dp56
I0
I8995
ssg15
(dp57
I0
I8995
ssg17
(dp58
I0
I8995
sssS'longitude'
p59
(dp60
g3
(dp61
I0
I1888
ssg5
(dp62
I0
I1888
ssg7
(dp63
I2
I9
sI3
I30
sI4
I50
sI5
I57
sI6
I41
sI7
I83
sI8
I397
sI9
I845
sI10
I273
sI11
I74
sI12
I29
ssg9
(dp64
I0
I1888
ssg11
(dp65
I0
I1888
ssg13
(dp66
I0
I1888
ssg15
(dp67
I0
I10
sI1
I1878
ssg17
(dp68
I0
I308
sI1
I1580
sssS'latitude'
p69
(dp70
g3
(dp71
I0
I1888
ssg5
(dp72
I0
I1888
ssg7
(dp73
I2
I1
sI3
I1
sI4
I62
sI5
I102
sI6
I96
sI7
I838
sI8
I413
sI9
I4
sI10
I327
sI11
I44
ssg9
(dp74
I0
I1888
ssg11
(dp75
I0
I1888
ssg13
(dp76
I0
I1888
ssg15
(dp77
I0
I2
sI1
I1886
ssg17
(dp78
I0
I1832
sI1
I56
sssS'year'
p79
(dp80
g3
(dp81
I0
I1443
ssg5
(dp82
I0
I1443
ssg7
(dp83
I1
I20
sI4
I1423
ssg9
(dp84
I0
I1443
ssg11
(dp85
I0
I1443
ssg13
(dp86
I0
I1443
ssg15
(dp87
I0
I1443
ssg17
(dp88
I0
I1443
sssS'date'
p89
(dp90
g3
(dp91
I2
I2994
ssg5
(dp92
I0
I2994
ssg7
(dp93
I13
I327
sI14
I1353
sI15
I1314
ssg9
(dp94
I1
I2994
ssg11
(dp95
I0
I2994
ssg13
(dp96
I0
I2994
ssg15
(dp97
I0
I2994
ssg17
(dp98
I0
I2994
sss.