(dp0
S'Phone_Number'
p1
(dp2
S'slashes'
p3
(dp4
I0
I1000
ssS'length'
p5
(dp6
I16
I635
sI17
I277
sI15
I88
ssS'spaces'
p7
(dp8
I0
I1000
ssS'decimal points'
p9
(dp10
I0
I1000
ssS'dashes'
p11
(dp12
I2
I1000
sssS'Zip'
p13
(dp14
g3
(dp15
I0
I998
ssg5
(dp16
I4
I36
sI5
I461
sI6
I1
sI8
I7
sI9
I40
sI10
I453
ssg7
(dp17
I0
I998
ssg9
(dp18
I0
I998
ssg11
(dp19
I0
I545
sI1
I453
sssS'IP'
p20
(dp21
g3
(dp22
I0
I1000
ssg5
(dp23
I9
I1
sI10
I12
sI11
I62
sI12
I162
sI13
I302
sI14
I329
sI15
I132
ssg7
(dp24
I0
I1000
ssg9
(dp25
I3
I1000
ssg11
(dp26
I0
I1000
sssS'Number'
p27
(dp28
g3
(dp29
I0
I1996
ssg5
(dp30
I8
I105
sI3
I2
sI4
I995
sI6
I894
ssg7
(dp31
I0
I1996
ssg9
(dp32
I0
I1996
ssg11
(dp33
I0
I1996
sssS'Longitude'
p34
(dp35
g3
(dp36
I0
I1888
ssg5
(dp37
I2
I9
sI3
I30
sI4
I50
sI5
I57
sI6
I41
sI7
I83
sI8
I397
sI9
I845
sI10
I273
sI11
I74
sI12
I29
ssg7
(dp38
I0
I1888
ssg9
(dp39
I0
I10
sI1
I1878
ssg11
(dp40
I0
I308
sI1
I1580
sssS'Latitude'
p41
(dp42
g3
(dp43
I0
I1888
ssg5
(dp44
I2
I1
sI3
I1
sI4
I62
sI5
I102
sI6
I96
sI7
I838
sI8
I413
sI9
I4
sI10
I327
sI11
I44
ssg7
(dp45
I0
I1888
ssg9
(dp46
I0
I2
sI1
I1886
ssg11
(dp47
I0
I1832
sI1
I56
sssS'Date'
p48
(dp49
g3
(dp50
I2
I998
ssg5
(dp51
I13
I128
sI14
I487
sI15
I383
ssg7
(dp52
I1
I998
ssg9
(dp53
I0
I998
ssg11
(dp54
I0
I998
sss.