(dp0
S'Date'
p1
(dp2
S'slashes'
p3
(dp4
I2
I998
ssS'length'
p5
(dp6
I13
I128
sI14
I487
sI15
I383
ssS'dashes'
p7
(dp8
I0
I998
sssS'Latitude'
p9
(dp10
g3
(dp11
I0
I998
ssg5
(dp12
I2
I1
sI3
I1
sI4
I60
sI5
I92
sI6
I29
sI7
I27
sI8
I413
sI9
I4
sI10
I327
sI11
I44
ssg7
(dp13
I0
I942
sI1
I56
sssS'Number'
p14
(dp15
g3
(dp16
I0
I998
ssg5
(dp17
I3
I2
sI4
I995
sI6
I1
ssg7
(dp18
I0
I998
sssS'Longitude'
p19
(dp20
g3
(dp21
I0
I998
ssg5
(dp22
I2
I9
sI3
I30
sI4
I50
sI5
I55
sI6
I39
sI7
I36
sI8
I25
sI9
I378
sI10
I273
sI11
I74
sI12
I29
ssg7
(dp23
I0
I308
sI1
I690
sss.