(dp0
S'city'
p1
(dp2
S'city'
p3
I2
ssS'first_name'
p4
(dp5
S'last name'
p6
I2
ssS'last_name'
p7
(dp8
g6
I2
ssS'cdatetime'
p9
(dp10
S'Date'
p11
I1
ssS'zip'
p12
(dp13
S'Zip'
p14
I2
ssS'web'
p15
(dp16
S'url'
p17
I2
ssS'phone2'
p18
(dp19
S'Phone_Number'
p20
I2
ssS'phone1'
p21
(dp22
g20
I2
ssS'longitude'
p23
(dp24
S'Longitude'
p25
I1
ssS'crimedescr'
p26
(dp27
S'description'
p28
I1
ssS'county'
p29
(dp30
S'location'
p31
I2
ssS'beat'
p32
(dp33
S'street address'
p34
I1
ssS'state'
p35
(dp36
S'state'
p37
I2
ssS'district'
p38
(dp39
S'Number'
p40
I1
ssS'grid'
p41
(dp42
g40
I1
ssS'company_name'
p43
(dp44
S'city'
p45
I2
ssS'address'
p46
(dp47
g45
I3
ssS'latitude'
p48
(dp49
S'Latitude'
p50
I1
ssS'ucr_ncic_code'
p51
(dp52
g40
I1
ssS'email'
p53
(dp54
S'email'
p55
I2
ss.