(dp0
S'first_name'
p1
(dp2
S'last name'
p3
I2
ssS'last_name'
p4
(dp5
g3
I2
ssS'ISBN'
p6
(dp7
S'Zip'
p8
I1
ssS'AUTHOR'
p9
(dp10
S'city'
p11
I1
ssS'DISCOUNTED_PRICE'
p12
(dp13
S'Latitude'
p14
I1
ssS'gender'
p15
(dp16
S'city'
p17
I2
ssS'id'
p18
(dp19
S'email'
p20
I1
sS'Number'
p21
I1
ssS'phone'
p22
(dp23
S'Phone_Number'
p24
I1
ssS'REVIEW_DATE'
p25
(dp26
S'Date'
p27
I1
ssS'ip_address'
p28
(dp29
S'IP'
p30
I2
ssS'email'
p31
(dp32
g21
I1
sg20
I1
ss.