(dp0
S'city'
p1
(dp2
S'city'
p3
<<<<<<< HEAD
I2
ssS'last_name'
=======
I1
ssS'first_name'
>>>>>>> 8bc982f62ef052e48f2d20116c6db15284c9c271
p4
(dp5
S'last name'
p6
I1
ssS'last_name'
p7
(dp8
g6
I1
ssS'zip'
p9
(dp10
S'Zip'
p11
I1
<<<<<<< HEAD
ssS'number'
p10
(dp11
S'Number'
p12
I11
ssS'county'
p13
(dp14
S'location'
=======
ssS'web'
p12
(dp13
S'url'
p14
I1
ssS'phone2'
>>>>>>> 8bc982f62ef052e48f2d20116c6db15284c9c271
p15
(dp16
S'Phone_Number'
p17
I1
<<<<<<< HEAD
ssS'State'
p16
(dp17
S'state'
p18
I2
ssS'street'
p19
(dp20
S'street address'
p21
I1
ssS'baths'
p22
(dp23
S'Number'
p24
I1
ssS'Latitude'
p25
(dp26
S'Latitude'
p27
I2
ssS'ucr_ncic_code'
p28
(dp29
g24
I1
ssS'id'
p30
(dp31
S'email'
p32
I1
sg24
I1
ssS'city'
p33
(dp34
S'city'
p35
I2
ssS'first_name'
p36
(dp37
g6
I3
ssS'district'
p38
(dp39
g24
I1
ssS'AUTHOR'
p40
(dp41
S'city'
p42
I1
ssS'Price'
p43
(dp44
g24
I1
sS'Year'
p45
I1
ssS'sale_date'
p46
(dp47
g42
I1
ssS'state'
p48
(dp49
g18
I2
ssS'Last_Login'
p50
(dp51
S'Date'
p52
I2
ssS'company_name'
p53
(dp54
g42
I1
ssS'latitude'
p55
(dp56
g27
I2
ssS'sq__ft'
p57
(dp58
g24
I1
ssS'type'
p59
(dp60
g35
I1
ssS'email'
p61
(dp62
g24
I1
sg32
I2
ssS'Account_Created'
p63
(dp64
g52
I2
ssS'REVIEW_DATE'
p65
(dp66
g52
I1
ssS'Name'
p67
(dp68
g6
I2
ssS'web'
p69
(dp70
S'url'
p71
I1
ssS'beat'
p72
(dp73
g21
I1
ssS'Country'
p74
(dp75
g15
I2
ssS'price'
p76
(dp77
g24
I1
ssS'phone1'
p78
(dp79
S'Phone_Number'
p80
I1
ssS'Product'
p81
(dp82
g71
I2
ssS'Longitude'
p83
(dp84
S'Longitude'
p85
I2
ssS'phone'
p86
(dp87
g80
I1
ssS'Transaction_date'
p88
(dp89
g52
I2
ssS'grid'
p90
(dp91
g24
I1
ssS'address'
p92
(dp93
g42
I2
ssS'ip_address'
p94
(dp95
S'IP'
p96
I2
ssS'cdatetime'
p97
(dp98
g52
I1
ssS'zip'
p99
(dp100
g9
I2
ssS'crimedescr'
p101
(dp102
S'description'
p103
I1
ssS'DISCOUNTED_PRICE'
p104
(dp105
g27
I1
ssS'gender'
p106
(dp107
g35
I2
ssS'longitude'
p108
(dp109
g85
I2
ssS'beds'
p110
(dp111
g24
I1
ssS'Payment_Type'
p112
(dp113
g35
I2
ssS'phone2'
p114
(dp115
g80
=======
ssS'phone1'
p18
(dp19
g17
I1
ssS'county'
p20
(dp21
S'location'
p22
I1
ssS'state'
p23
(dp24
S'state'
p25
I1
ssS'company_name'
p26
(dp27
S'city'
p28
I1
ssS'address'
p29
(dp30
g28
I1
ssS'email'
p31
(dp32
S'email'
p33
>>>>>>> 8bc982f62ef052e48f2d20116c6db15284c9c271
I1
ss.