(dp0
S'City'
p1
(dp2
S'city state'
p3
I1
ssS'last_name'
p4
(dp5
S'last name'
p6
I3
ssS'ISBN'
p7
(dp8
S'Zip'
p9
I1
ssS'county'
p10
(dp11
S'location'
p12
I1
ssS'State'
p13
(dp14
S'state'
p15
I1
ssS'street'
p16
(dp17
S'street address'
p18
I1
ssS'baths'
p19
(dp20
S'Number'
p21
I1
ssS'Latitude'
p22
(dp23
S'Latitude'
p24
I1
ssS'ucr_ncic_code'
p25
(dp26
g21
I1
ssS'id'
p27
(dp28
S'email'
p29
I1
sg21
I1
ssS'city'
p30
(dp31
S'city'
p32
I2
ssS'first_name'
p33
(dp34
g6
I3
ssS'district'
p35
(dp36
g21
I1
ssS'AUTHOR'
p37
(dp38
S'city'
p39
I1
ssS'Price'
p40
(dp41
g21
I1
ssS'sale_date'
p42
(dp43
g39
I1
ssS'state'
p44
(dp45
g15
I2
ssS'Last_Login'
p46
(dp47
S'Date'
p48
I1
ssS'company_name'
p49
(dp50
g39
I1
ssS'latitude'
p51
(dp52
g24
I2
ssS'sq__ft'
p53
(dp54
g21
I1
ssS'type'
p55
(dp56
g32
I1
ssS'email'
p57
(dp58
g21
I1
sg29
I2
ssS'Account_Created'
p59
(dp60
g48
I1
ssS'zip'
p61
(dp62
g9
I2
ssS'REVIEW_DATE'
p63
(dp64
g48
I1
ssS'Name'
p65
(dp66
g6
I1
ssS'web'
p67
(dp68
S'url'
p69
I1
ssS'beat'
p70
(dp71
g18
I1
ssS'Country'
p72
(dp73
g12
I1
ssS'price'
p74
(dp75
g21
I1
ssS'phone1'
p76
(dp77
S'Phone_Number'
p78
I1
ssS'Product'
p79
(dp80
g69
I1
ssS'Longitude'
p81
(dp82
S'Longitude'
p83
I1
ssS'phone'
p84
(dp85
g78
I1
ssS'Transaction_date'
p86
(dp87
g48
I1
ssS'grid'
p88
(dp89
g21
I1
ssS'address'
p90
(dp91
g39
I2
ssS'ip_address'
p92
(dp93
S'IP'
p94
I2
ssS'cdatetime'
p95
(dp96
g48
I1
ssS'crimedescr'
p97
(dp98
S'description'
p99
I1
ssS'DISCOUNTED_PRICE'
p100
(dp101
g24
I1
ssS'gender'
p102
(dp103
g32
I2
ssS'longitude'
p104
(dp105
g83
I2
ssS'beds'
p106
(dp107
g21
I1
ssS'Payment_Type'
p108
(dp109
g32
I1
ssS'phone2'
p110
(dp111
g78
I1
ss.